
main:     file format elf32-littleriscv


Disassembly of section .init:

00000000 <_start>:
   0:	20001197          	auipc	gp,0x20001
   4:	a4018193          	addi	gp,gp,-1472 # 20000a40 <__global_pointer$>
   8:	20010117          	auipc	sp,0x20010
   c:	ff810113          	addi	sp,sp,-8 # 20010000 <__freertos_irq_stack_top>
  10:	00004517          	auipc	a0,0x4
  14:	0c850513          	addi	a0,a0,200 # 40d8 <_data_lma>
  18:	20000597          	auipc	a1,0x20000
  1c:	fe858593          	addi	a1,a1,-24 # 20000000 <_data>
  20:	80818613          	addi	a2,gp,-2040 # 20000248 <spec_flag.0>
  24:	00c5fc63          	bgeu	a1,a2,3c <_start+0x3c>
  28:	00052283          	lw	t0,0(a0)
  2c:	0055a023          	sw	t0,0(a1)
  30:	00450513          	addi	a0,a0,4
  34:	00458593          	addi	a1,a1,4
  38:	fec5e8e3          	bltu	a1,a2,28 <_start+0x28>
  3c:	80818513          	addi	a0,gp,-2040 # 20000248 <spec_flag.0>
  40:	81818593          	addi	a1,gp,-2024 # 20000258 <_end>
  44:	00b57863          	bgeu	a0,a1,54 <_start+0x54>
  48:	00052023          	sw	zero,0(a0)
  4c:	00450513          	addi	a0,a0,4
  50:	feb56ce3          	bltu	a0,a1,48 <_start+0x48>
  54:	008000ef          	jal	ra,5c <main>

00000058 <loop>:
  58:	0000006f          	j	58 <loop>

Disassembly of section .text:

0000005c <main>:
      5c:	fb010113          	addi	sp,sp,-80
      60:	01200793          	li	a5,18
      64:	00000813          	li	a6,0
      68:	00f12223          	sw	a5,4(sp)
      6c:	00000793          	li	a5,0
      70:	04112623          	sw	ra,76(sp)
      74:	00f12823          	sw	a5,16(sp)
      78:	01012a23          	sw	a6,20(sp)
      7c:	00010c23          	sb	zero,24(sp)
      80:	02f12023          	sw	a5,32(sp)
      84:	03012223          	sw	a6,36(sp)
      88:	02010423          	sb	zero,40(sp)
      8c:	02010c23          	sb	zero,56(sp)
      90:	02f12823          	sw	a5,48(sp)
      94:	03012a23          	sw	a6,52(sp)
      98:	00010623          	sb	zero,12(sp)
      9c:	00012423          	sw	zero,8(sp)
      a0:	00810513          	addi	a0,sp,8
      a4:	174000ef          	jal	ra,218 <mouse_update>
      a8:	00410713          	addi	a4,sp,4
      ac:	03010693          	addi	a3,sp,48
      b0:	02010613          	addi	a2,sp,32
      b4:	01010593          	addi	a1,sp,16
      b8:	00810513          	addi	a0,sp,8
      bc:	371010ef          	jal	ra,1c2c <execute_signal>
      c0:	03010513          	addi	a0,sp,48
      c4:	174000ef          	jal	ra,238 <VGA_display>
      c8:	1f400513          	li	a0,500
      cc:	148000ef          	jal	ra,214 <delay>
      d0:	fd1ff06f          	j	a0 <main+0x44>

000000d4 <identify>:
      d4:	00051703          	lh	a4,0(a0)
      d8:	04f00693          	li	a3,79
      dc:	00251783          	lh	a5,2(a0)
      e0:	f7e70613          	addi	a2,a4,-130
      e4:	04c6e263          	bltu	a3,a2,128 <identify+0x54>
      e8:	f4278713          	addi	a4,a5,-190
      ec:	03200693          	li	a3,50
      f0:	00700513          	li	a0,7
      f4:	04e6f863          	bgeu	a3,a4,144 <identify+0x70>
      f8:	f0178713          	addi	a4,a5,-255
      fc:	00400513          	li	a0,4
     100:	04e6f263          	bgeu	a3,a4,144 <identify+0x70>
     104:	ec078713          	addi	a4,a5,-320
     108:	00100513          	li	a0,1
     10c:	02e6fc63          	bgeu	a3,a4,144 <identify+0x70>
     110:	e7f78513          	addi	a0,a5,-385
     114:	00a6b533          	sltu	a0,a3,a0
     118:	40a00533          	neg	a0,a0
     11c:	00757513          	andi	a0,a0,7
     120:	00b50513          	addi	a0,a0,11
     124:	00008067          	ret
     128:	f1a70693          	addi	a3,a4,-230
     12c:	05000613          	li	a2,80
     130:	00d66c63          	bltu	a2,a3,148 <identify+0x74>
     134:	f4278713          	addi	a4,a5,-190
     138:	03200693          	li	a3,50
     13c:	00800513          	li	a0,8
     140:	04e6ec63          	bltu	a3,a4,198 <identify+0xc4>
     144:	00008067          	ret
     148:	eb670693          	addi	a3,a4,-330
     14c:	06d66c63          	bltu	a2,a3,1c4 <identify+0xf0>
     150:	f8378713          	addi	a4,a5,-125
     154:	03200693          	li	a3,50
     158:	00000513          	li	a0,0
     15c:	fee6f4e3          	bgeu	a3,a4,144 <identify+0x70>
     160:	f4278713          	addi	a4,a5,-190
     164:	00900513          	li	a0,9
     168:	fce6fee3          	bgeu	a3,a4,144 <identify+0x70>
     16c:	f0178713          	addi	a4,a5,-255
     170:	00600513          	li	a0,6
     174:	fce6f8e3          	bgeu	a3,a4,144 <identify+0x70>
     178:	ec078713          	addi	a4,a5,-320
     17c:	00300513          	li	a0,3
     180:	fce6f2e3          	bgeu	a3,a4,144 <identify+0x70>
     184:	e7f78513          	addi	a0,a5,-385
     188:	00a6b533          	sltu	a0,a3,a0
     18c:	00351513          	slli	a0,a0,0x3
     190:	00a50513          	addi	a0,a0,10
     194:	00008067          	ret
     198:	f0178713          	addi	a4,a5,-255
     19c:	00500513          	li	a0,5
     1a0:	fae6f2e3          	bgeu	a3,a4,144 <identify+0x70>
     1a4:	ec078713          	addi	a4,a5,-320
     1a8:	00200513          	li	a0,2
     1ac:	f8e6fce3          	bgeu	a3,a4,144 <identify+0x70>
     1b0:	e7f78513          	addi	a0,a5,-385
     1b4:	00a6b533          	sltu	a0,a3,a0
     1b8:	40a00533          	neg	a0,a0
     1bc:	01257513          	andi	a0,a0,18
     1c0:	00008067          	ret
     1c4:	e5270713          	addi	a4,a4,-430
     1c8:	01200513          	li	a0,18
     1cc:	f6e66ce3          	bltu	a2,a4,144 <identify+0x70>
     1d0:	f8378693          	addi	a3,a5,-125
     1d4:	03200713          	li	a4,50
     1d8:	00f00513          	li	a0,15
     1dc:	f6d774e3          	bgeu	a4,a3,144 <identify+0x70>
     1e0:	f4278693          	addi	a3,a5,-190
     1e4:	00e00513          	li	a0,14
     1e8:	f4d77ee3          	bgeu	a4,a3,144 <identify+0x70>
     1ec:	f0178693          	addi	a3,a5,-255
     1f0:	00d00513          	li	a0,13
     1f4:	f4d778e3          	bgeu	a4,a3,144 <identify+0x70>
     1f8:	ec078693          	addi	a3,a5,-320
     1fc:	00c00513          	li	a0,12
     200:	f4d772e3          	bgeu	a4,a3,144 <identify+0x70>
     204:	e7f78793          	addi	a5,a5,-385
     208:	00f73533          	sltu	a0,a4,a5
     20c:	01150513          	addi	a0,a0,17
     210:	00008067          	ret

00000214 <delay>:
     214:	00008067          	ret

00000218 <mouse_update>:
     218:	400007b7          	lui	a5,0x40000
     21c:	0007d703          	lhu	a4,0(a5) # 40000000 <__freertos_irq_stack_top+0x1fff0000>
     220:	00e51023          	sh	a4,0(a0)
     224:	0027d703          	lhu	a4,2(a5)
     228:	00e51123          	sh	a4,2(a0)
     22c:	0047c783          	lbu	a5,4(a5)
     230:	00f50223          	sb	a5,4(a0)
     234:	00008067          	ret

00000238 <VGA_display>:
     238:	00452783          	lw	a5,4(a0)
     23c:	1c07ce63          	bltz	a5,418 <VGA_display+0x1e0>
     240:	410007b7          	lui	a5,0x41000
     244:	000786a3          	sb	zero,13(a5) # 4100000d <__freertos_irq_stack_top+0x20ff000d>
     248:	00052583          	lw	a1,0(a0)
     24c:	00452703          	lw	a4,4(a0)
     250:	00854683          	lbu	a3,8(a0)
     254:	41000f37          	lui	t5,0x41000
     258:	00e5e7b3          	or	a5,a1,a4
     25c:	00df0623          	sb	a3,12(t5) # 4100000c <__freertos_irq_stack_top+0x20ff000c>
     260:	16078c63          	beqz	a5,3d8 <VGA_display+0x1a0>
     264:	00471693          	slli	a3,a4,0x4
     268:	01c5d793          	srli	a5,a1,0x1c
     26c:	100008b7          	lui	a7,0x10000
     270:	fff88893          	addi	a7,a7,-1 # fffffff <__stack_size+0xfff7fff>
     274:	00f6e7b3          	or	a5,a3,a5
     278:	0115f633          	and	a2,a1,a7
     27c:	0117f7b3          	and	a5,a5,a7
     280:	41f75693          	srai	a3,a4,0x1f
     284:	01875813          	srli	a6,a4,0x18
     288:	00f60633          	add	a2,a2,a5
     28c:	01060633          	add	a2,a2,a6
     290:	0036f793          	andi	a5,a3,3
     294:	00f60633          	add	a2,a2,a5
     298:	00500793          	li	a5,5
     29c:	02f67633          	remu	a2,a2,a5
     2a0:	ffc6f693          	andi	a3,a3,-4
     2a4:	ccccd337          	lui	t1,0xccccd
     2a8:	ccd30813          	addi	a6,t1,-819 # cccccccd <__freertos_irq_stack_top+0xaccbcccd>
     2ac:	ccc30313          	addi	t1,t1,-820
     2b0:	410007b7          	lui	a5,0x41000
     2b4:	00500e93          	li	t4,5
     2b8:	00b78e13          	addi	t3,a5,11 # 4100000b <__freertos_irq_stack_top+0x20ff000b>
     2bc:	00d60633          	add	a2,a2,a3
     2c0:	40c586b3          	sub	a3,a1,a2
     2c4:	41f65613          	srai	a2,a2,0x1f
     2c8:	00d5bfb3          	sltu	t6,a1,a3
     2cc:	40c70733          	sub	a4,a4,a2
     2d0:	41f70733          	sub	a4,a4,t6
     2d4:	02668633          	mul	a2,a3,t1
     2d8:	03070733          	mul	a4,a4,a6
     2dc:	0306bfb3          	mulhu	t6,a3,a6
     2e0:	00c70733          	add	a4,a4,a2
     2e4:	03068633          	mul	a2,a3,a6
     2e8:	01f70733          	add	a4,a4,t6
     2ec:	01f75693          	srli	a3,a4,0x1f
     2f0:	00c68633          	add	a2,a3,a2
     2f4:	00d636b3          	sltu	a3,a2,a3
     2f8:	00e686b3          	add	a3,a3,a4
     2fc:	01f69713          	slli	a4,a3,0x1f
     300:	00165613          	srli	a2,a2,0x1
     304:	00c76633          	or	a2,a4,a2
     308:	00261713          	slli	a4,a2,0x2
     30c:	00c70733          	add	a4,a4,a2
     310:	00171713          	slli	a4,a4,0x1
     314:	40e585b3          	sub	a1,a1,a4
     318:	0ff5f593          	zext.b	a1,a1
     31c:	00bf0023          	sb	a1,0(t5)
     320:	4016d693          	srai	a3,a3,0x1
     324:	00469713          	slli	a4,a3,0x4
     328:	01c65593          	srli	a1,a2,0x1c
     32c:	00b765b3          	or	a1,a4,a1
     330:	0115ff33          	and	t5,a1,a7
     334:	01167733          	and	a4,a2,a7
     338:	41f6d593          	srai	a1,a3,0x1f
     33c:	01e70733          	add	a4,a4,t5
     340:	0186df93          	srli	t6,a3,0x18
     344:	0035f293          	andi	t0,a1,3
     348:	01f70733          	add	a4,a4,t6
     34c:	00d66f33          	or	t5,a2,a3
     350:	00570733          	add	a4,a4,t0
     354:	ffc5f593          	andi	a1,a1,-4
     358:	00178793          	addi	a5,a5,1
     35c:	0e0f0263          	beqz	t5,440 <VGA_display+0x208>
     360:	03d77733          	remu	a4,a4,t4
     364:	00b70733          	add	a4,a4,a1
     368:	40e605b3          	sub	a1,a2,a4
     36c:	41f75713          	srai	a4,a4,0x1f
     370:	00b63f33          	sltu	t5,a2,a1
     374:	40e68733          	sub	a4,a3,a4
     378:	41e70733          	sub	a4,a4,t5
     37c:	03070733          	mul	a4,a4,a6
     380:	02658f33          	mul	t5,a1,t1
     384:	0305b6b3          	mulhu	a3,a1,a6
     388:	01e70733          	add	a4,a4,t5
     38c:	030585b3          	mul	a1,a1,a6
     390:	00d70733          	add	a4,a4,a3
     394:	01f75693          	srli	a3,a4,0x1f
     398:	00b685b3          	add	a1,a3,a1
     39c:	00d5b6b3          	sltu	a3,a1,a3
     3a0:	00e686b3          	add	a3,a3,a4
     3a4:	01f69f13          	slli	t5,a3,0x1f
     3a8:	0015d713          	srli	a4,a1,0x1
     3ac:	00ef6733          	or	a4,t5,a4
     3b0:	00271593          	slli	a1,a4,0x2
     3b4:	00e585b3          	add	a1,a1,a4
     3b8:	00159593          	slli	a1,a1,0x1
     3bc:	40b60633          	sub	a2,a2,a1
     3c0:	0ff67613          	zext.b	a2,a2
     3c4:	00c78023          	sb	a2,0(a5)
     3c8:	4016d693          	srai	a3,a3,0x1
     3cc:	00070613          	mv	a2,a4
     3d0:	f5c79ae3          	bne	a5,t3,324 <VGA_display+0xec>
     3d4:	00008067          	ret
     3d8:	000f0023          	sb	zero,0(t5)
     3dc:	001f0793          	addi	a5,t5,1
     3e0:	41000737          	lui	a4,0x41000
     3e4:	bf0005b7          	lui	a1,0xbf000
     3e8:	fff00813          	li	a6,-1
     3ec:	00b70713          	addi	a4,a4,11 # 4100000b <__freertos_irq_stack_top+0x20ff000b>
     3f0:	00854683          	lbu	a3,8(a0)
     3f4:	00b78633          	add	a2,a5,a1
     3f8:	00c6cc63          	blt	a3,a2,410 <VGA_display+0x1d8>
     3fc:	00078023          	sb	zero,0(a5)
     400:	fce78ae3          	beq	a5,a4,3d4 <VGA_display+0x19c>
     404:	00178793          	addi	a5,a5,1
     408:	fef774e3          	bgeu	a4,a5,3f0 <VGA_display+0x1b8>
     40c:	00008067          	ret
     410:	01078023          	sb	a6,0(a5)
     414:	fedff06f          	j	400 <VGA_display+0x1c8>
     418:	410007b7          	lui	a5,0x41000
     41c:	00100713          	li	a4,1
     420:	00e786a3          	sb	a4,13(a5) # 4100000d <__freertos_irq_stack_top+0x20ff000d>
     424:	00052583          	lw	a1,0(a0)
     428:	00452703          	lw	a4,4(a0)
     42c:	00b037b3          	snez	a5,a1
     430:	40e00733          	neg	a4,a4
     434:	40b005b3          	neg	a1,a1
     438:	40f70733          	sub	a4,a4,a5
     43c:	e15ff06f          	j	250 <VGA_display+0x18>
     440:	41000737          	lui	a4,0x41000
     444:	00b70713          	addi	a4,a4,11 # 4100000b <__freertos_irq_stack_top+0x20ff000b>
     448:	f8f77ce3          	bgeu	a4,a5,3e0 <VGA_display+0x1a8>
     44c:	00008067          	ret

00000450 <Number_plus>:
     450:	0085c803          	lbu	a6,8(a1) # bf000008 <__freertos_irq_stack_top+0x9eff0008>
     454:	00864f03          	lbu	t5,8(a2)
     458:	0005a683          	lw	a3,0(a1)
     45c:	0045a303          	lw	t1,4(a1)
     460:	00462883          	lw	a7,4(a2)
     464:	00062583          	lw	a1,0(a2)
     468:	3fe80663          	beq	a6,t5,854 <Number_plus+0x404>
     46c:	350f7e63          	bgeu	t5,a6,7c8 <Number_plus+0x378>
     470:	41e80f33          	sub	t5,a6,t5
     474:	0fff7f13          	zext.b	t5,t5
     478:	00000e93          	li	t4,0
     47c:	00100613          	li	a2,1
     480:	00000713          	li	a4,0
     484:	00261793          	slli	a5,a2,0x2
     488:	01e65f93          	srli	t6,a2,0x1e
     48c:	00271e13          	slli	t3,a4,0x2
     490:	00c78633          	add	a2,a5,a2
     494:	01cfee33          	or	t3,t6,t3
     498:	00ee0e33          	add	t3,t3,a4
     49c:	00f637b3          	sltu	a5,a2,a5
     4a0:	01c787b3          	add	a5,a5,t3
     4a4:	001e8e93          	addi	t4,t4,1
     4a8:	01f65713          	srli	a4,a2,0x1f
     4ac:	00179793          	slli	a5,a5,0x1
     4b0:	0ffefe93          	zext.b	t4,t4
     4b4:	00161613          	slli	a2,a2,0x1
     4b8:	00f76733          	or	a4,a4,a5
     4bc:	fddf14e3          	bne	t5,t4,484 <Number_plus+0x34>
     4c0:	02b707b3          	mul	a5,a4,a1
     4c4:	02c888b3          	mul	a7,a7,a2
     4c8:	02b60733          	mul	a4,a2,a1
     4cc:	011787b3          	add	a5,a5,a7
     4d0:	02b63633          	mulhu	a2,a2,a1
     4d4:	00d706b3          	add	a3,a4,a3
     4d8:	00e6b733          	sltu	a4,a3,a4
     4dc:	00c787b3          	add	a5,a5,a2
     4e0:	006787b3          	add	a5,a5,t1
     4e4:	00f70733          	add	a4,a4,a5
     4e8:	ccccd7b7          	lui	a5,0xccccd
     4ec:	ccd78893          	addi	a7,a5,-819 # cccccccd <__freertos_irq_stack_top+0xaccbcccd>
     4f0:	ccc78793          	addi	a5,a5,-820
     4f4:	02f685b3          	mul	a1,a3,a5
     4f8:	20000e37          	lui	t3,0x20000
     4fc:	240e2f03          	lw	t5,576(t3) # 20000240 <__clz_tab+0x104>
     500:	244e2e83          	lw	t4,580(t3)
     504:	03170633          	mul	a2,a4,a7
     508:	031687b3          	mul	a5,a3,a7
     50c:	00b60633          	add	a2,a2,a1
     510:	0316b8b3          	mulhu	a7,a3,a7
     514:	01e785b3          	add	a1,a5,t5
     518:	00f5b7b3          	sltu	a5,a1,a5
     51c:	01f59313          	slli	t1,a1,0x1f
     520:	0015d593          	srli	a1,a1,0x1
     524:	01160633          	add	a2,a2,a7
     528:	01d60633          	add	a2,a2,t4
     52c:	00c787b3          	add	a5,a5,a2
     530:	0017d613          	srli	a2,a5,0x1
     534:	00c36633          	or	a2,t1,a2
     538:	01f79793          	slli	a5,a5,0x1f
     53c:	00b7e7b3          	or	a5,a5,a1
     540:	10cee263          	bltu	t4,a2,644 <Number_plus+0x1f4>
     544:	35d60463          	beq	a2,t4,88c <Number_plus+0x43c>
     548:	240e2e83          	lw	t4,576(t3)
     54c:	244e2883          	lw	a7,580(t3)
     550:	10000337          	lui	t1,0x10000
     554:	ccccde37          	lui	t3,0xccccd
     558:	ccde0593          	addi	a1,t3,-819 # cccccccd <__freertos_irq_stack_top+0xaccbcccd>
     55c:	fff30313          	addi	t1,t1,-1 # fffffff <__stack_size+0xfff7fff>
     560:	00500f13          	li	t5,5
     564:	ccce0e13          	addi	t3,t3,-820
     568:	0a40006f          	j	60c <Number_plus+0x1bc>
     56c:	03e7f7b3          	remu	a5,a5,t5
     570:	0ffff813          	zext.b	a6,t6
     574:	00c787b3          	add	a5,a5,a2
     578:	40f68633          	sub	a2,a3,a5
     57c:	41f7d793          	srai	a5,a5,0x1f
     580:	00c6b6b3          	sltu	a3,a3,a2
     584:	40f707b3          	sub	a5,a4,a5
     588:	40d787b3          	sub	a5,a5,a3
     58c:	02b787b3          	mul	a5,a5,a1
     590:	03c606b3          	mul	a3,a2,t3
     594:	02b63733          	mulhu	a4,a2,a1
     598:	00d787b3          	add	a5,a5,a3
     59c:	02b60633          	mul	a2,a2,a1
     5a0:	00e787b3          	add	a5,a5,a4
     5a4:	01f7d713          	srli	a4,a5,0x1f
     5a8:	00c70633          	add	a2,a4,a2
     5ac:	00e63733          	sltu	a4,a2,a4
     5b0:	00f70733          	add	a4,a4,a5
     5b4:	01f71693          	slli	a3,a4,0x1f
     5b8:	00165613          	srli	a2,a2,0x1
     5bc:	00c6e6b3          	or	a3,a3,a2
     5c0:	40175713          	srai	a4,a4,0x1
     5c4:	03c68fb3          	mul	t6,a3,t3
     5c8:	02b70633          	mul	a2,a4,a1
     5cc:	02b687b3          	mul	a5,a3,a1
     5d0:	01f60633          	add	a2,a2,t6
     5d4:	02b6b3b3          	mulhu	t2,a3,a1
     5d8:	01d78fb3          	add	t6,a5,t4
     5dc:	00ffb7b3          	sltu	a5,t6,a5
     5e0:	01ff9293          	slli	t0,t6,0x1f
     5e4:	001fdf93          	srli	t6,t6,0x1
     5e8:	00760633          	add	a2,a2,t2
     5ec:	01160633          	add	a2,a2,a7
     5f0:	00c787b3          	add	a5,a5,a2
     5f4:	0017d613          	srli	a2,a5,0x1
     5f8:	00c2e633          	or	a2,t0,a2
     5fc:	01f79793          	slli	a5,a5,0x1f
     600:	01f7e7b3          	or	a5,a5,t6
     604:	04c8e063          	bltu	a7,a2,644 <Number_plus+0x1f4>
     608:	25160263          	beq	a2,a7,84c <Number_plus+0x3fc>
     60c:	00471793          	slli	a5,a4,0x4
     610:	01c6d613          	srli	a2,a3,0x1c
     614:	00c7e633          	or	a2,a5,a2
     618:	00667fb3          	and	t6,a2,t1
     61c:	0066f7b3          	and	a5,a3,t1
     620:	41f75613          	srai	a2,a4,0x1f
     624:	01f787b3          	add	a5,a5,t6
     628:	01875293          	srli	t0,a4,0x18
     62c:	00367393          	andi	t2,a2,3
     630:	005787b3          	add	a5,a5,t0
     634:	007787b3          	add	a5,a5,t2
     638:	ffc67613          	andi	a2,a2,-4
     63c:	fff80f93          	addi	t6,a6,-1
     640:	f20816e3          	bnez	a6,56c <Number_plus+0x11c>
     644:	00e6e7b3          	or	a5,a3,a4
     648:	22078063          	beqz	a5,868 <Number_plus+0x418>
     64c:	ccccdeb7          	lui	t4,0xccccd
     650:	10000e37          	lui	t3,0x10000
     654:	ccde8313          	addi	t1,t4,-819 # cccccccd <__freertos_irq_stack_top+0xaccbcccd>
     658:	00068f93          	mv	t6,a3
     65c:	00070593          	mv	a1,a4
     660:	00000613          	li	a2,0
     664:	fffe0e13          	addi	t3,t3,-1 # fffffff <__stack_size+0xfff7fff>
     668:	00500f13          	li	t5,5
     66c:	ccce8e93          	addi	t4,t4,-820
     670:	00459793          	slli	a5,a1,0x4
     674:	01cfd893          	srli	a7,t6,0x1c
     678:	0117e8b3          	or	a7,a5,a7
     67c:	01c8f8b3          	and	a7,a7,t3
     680:	01cff7b3          	and	a5,t6,t3
     684:	41f5d293          	srai	t0,a1,0x1f
     688:	0185d393          	srli	t2,a1,0x18
     68c:	011787b3          	add	a5,a5,a7
     690:	007787b3          	add	a5,a5,t2
     694:	0032f893          	andi	a7,t0,3
     698:	011787b3          	add	a5,a5,a7
     69c:	03e7f7b3          	remu	a5,a5,t5
     6a0:	ffc2f293          	andi	t0,t0,-4
     6a4:	00160613          	addi	a2,a2,1
     6a8:	0ff67613          	zext.b	a2,a2
     6ac:	005787b3          	add	a5,a5,t0
     6b0:	40ff88b3          	sub	a7,t6,a5
     6b4:	41f7d793          	srai	a5,a5,0x1f
     6b8:	011fbfb3          	sltu	t6,t6,a7
     6bc:	40f587b3          	sub	a5,a1,a5
     6c0:	41f787b3          	sub	a5,a5,t6
     6c4:	026787b3          	mul	a5,a5,t1
     6c8:	03d88fb3          	mul	t6,a7,t4
     6cc:	0268b5b3          	mulhu	a1,a7,t1
     6d0:	01f787b3          	add	a5,a5,t6
     6d4:	026888b3          	mul	a7,a7,t1
     6d8:	00b787b3          	add	a5,a5,a1
     6dc:	01f7d593          	srli	a1,a5,0x1f
     6e0:	011588b3          	add	a7,a1,a7
     6e4:	00b8b5b3          	sltu	a1,a7,a1
     6e8:	00f585b3          	add	a1,a1,a5
     6ec:	01f59f93          	slli	t6,a1,0x1f
     6f0:	0018d893          	srli	a7,a7,0x1
     6f4:	011fefb3          	or	t6,t6,a7
     6f8:	4015d593          	srai	a1,a1,0x1
     6fc:	00bfe7b3          	or	a5,t6,a1
     700:	f60798e3          	bnez	a5,670 <Number_plus+0x220>
     704:	ccccde37          	lui	t3,0xccccd
     708:	10000337          	lui	t1,0x10000
     70c:	ccde0893          	addi	a7,t3,-819 # cccccccd <__freertos_irq_stack_top+0xaccbcccd>
     710:	00c00f13          	li	t5,12
     714:	fff30313          	addi	t1,t1,-1 # fffffff <__stack_size+0xfff7fff>
     718:	00500e93          	li	t4,5
     71c:	ccce0e13          	addi	t3,t3,-820
     720:	08cf7c63          	bgeu	t5,a2,7b8 <Number_plus+0x368>
     724:	00471793          	slli	a5,a4,0x4
     728:	01c6d593          	srli	a1,a3,0x1c
     72c:	00b7e5b3          	or	a1,a5,a1
     730:	0065f5b3          	and	a1,a1,t1
     734:	0066f7b3          	and	a5,a3,t1
     738:	41f75f93          	srai	t6,a4,0x1f
     73c:	01875293          	srli	t0,a4,0x18
     740:	00b787b3          	add	a5,a5,a1
     744:	005787b3          	add	a5,a5,t0
     748:	003ff593          	andi	a1,t6,3
     74c:	00b787b3          	add	a5,a5,a1
     750:	03d7f7b3          	remu	a5,a5,t4
     754:	ffcfff93          	andi	t6,t6,-4
     758:	01f787b3          	add	a5,a5,t6
     75c:	40f685b3          	sub	a1,a3,a5
     760:	41f7d793          	srai	a5,a5,0x1f
     764:	00b6b6b3          	sltu	a3,a3,a1
     768:	40f707b3          	sub	a5,a4,a5
     76c:	40d787b3          	sub	a5,a5,a3
     770:	031787b3          	mul	a5,a5,a7
     774:	03c586b3          	mul	a3,a1,t3
     778:	0315b733          	mulhu	a4,a1,a7
     77c:	00d787b3          	add	a5,a5,a3
     780:	031585b3          	mul	a1,a1,a7
     784:	00e787b3          	add	a5,a5,a4
     788:	01f7d713          	srli	a4,a5,0x1f
     78c:	00b705b3          	add	a1,a4,a1
     790:	00e5b733          	sltu	a4,a1,a4
     794:	00f70733          	add	a4,a4,a5
     798:	01f71693          	slli	a3,a4,0x1f
     79c:	0015d593          	srli	a1,a1,0x1
     7a0:	00b6e6b3          	or	a3,a3,a1
     7a4:	40175713          	srai	a4,a4,0x1
     7a8:	f6080ee3          	beqz	a6,724 <Number_plus+0x2d4>
     7ac:	00180813          	addi	a6,a6,1
     7b0:	0ff87813          	zext.b	a6,a6
     7b4:	f6cf68e3          	bltu	t5,a2,724 <Number_plus+0x2d4>
     7b8:	00d52023          	sw	a3,0(a0)
     7bc:	00e52223          	sw	a4,4(a0)
     7c0:	01050423          	sb	a6,8(a0)
     7c4:	00008067          	ret
     7c8:	410f0833          	sub	a6,t5,a6
     7cc:	0ff87813          	zext.b	a6,a6
     7d0:	00000e93          	li	t4,0
     7d4:	00100613          	li	a2,1
     7d8:	00000713          	li	a4,0
     7dc:	00261793          	slli	a5,a2,0x2
     7e0:	01e65f93          	srli	t6,a2,0x1e
     7e4:	00271e13          	slli	t3,a4,0x2
     7e8:	00c78633          	add	a2,a5,a2
     7ec:	01cfee33          	or	t3,t6,t3
     7f0:	00ee0e33          	add	t3,t3,a4
     7f4:	00f637b3          	sltu	a5,a2,a5
     7f8:	01c787b3          	add	a5,a5,t3
     7fc:	001e8e93          	addi	t4,t4,1
     800:	01f65713          	srli	a4,a2,0x1f
     804:	00179793          	slli	a5,a5,0x1
     808:	0ffefe93          	zext.b	t4,t4
     80c:	00161613          	slli	a2,a2,0x1
     810:	00f76733          	or	a4,a4,a5
     814:	fd0e94e3          	bne	t4,a6,7dc <Number_plus+0x38c>
     818:	02d707b3          	mul	a5,a4,a3
     81c:	000f0813          	mv	a6,t5
     820:	02c30333          	mul	t1,t1,a2
     824:	02d60733          	mul	a4,a2,a3
     828:	006787b3          	add	a5,a5,t1
     82c:	02d63633          	mulhu	a2,a2,a3
     830:	00b705b3          	add	a1,a4,a1
     834:	00e5b733          	sltu	a4,a1,a4
     838:	00058693          	mv	a3,a1
     83c:	00c787b3          	add	a5,a5,a2
     840:	011787b3          	add	a5,a5,a7
     844:	00f70733          	add	a4,a4,a5
     848:	ca1ff06f          	j	4e8 <Number_plus+0x98>
     84c:	dcfef0e3          	bgeu	t4,a5,60c <Number_plus+0x1bc>
     850:	df5ff06f          	j	644 <Number_plus+0x1f4>
     854:	00d586b3          	add	a3,a1,a3
     858:	00b6b5b3          	sltu	a1,a3,a1
     85c:	006888b3          	add	a7,a7,t1
     860:	01158733          	add	a4,a1,a7
     864:	c85ff06f          	j	4e8 <Number_plus+0x98>
     868:	ccccde37          	lui	t3,0xccccd
     86c:	10000337          	lui	t1,0x10000
     870:	ccde0893          	addi	a7,t3,-819 # cccccccd <__freertos_irq_stack_top+0xaccbcccd>
     874:	00000613          	li	a2,0
     878:	00c00f13          	li	t5,12
     87c:	fff30313          	addi	t1,t1,-1 # fffffff <__stack_size+0xfff7fff>
     880:	00500e93          	li	t4,5
     884:	ccce0e13          	addi	t3,t3,-820
     888:	e99ff06f          	j	720 <Number_plus+0x2d0>
     88c:	caff7ee3          	bgeu	t5,a5,548 <Number_plus+0xf8>
     890:	db5ff06f          	j	644 <Number_plus+0x1f4>

00000894 <Number_minus>:
     894:	0085c803          	lbu	a6,8(a1)
     898:	00864f03          	lbu	t5,8(a2)
     89c:	0005a303          	lw	t1,0(a1)
     8a0:	00062683          	lw	a3,0(a2)
     8a4:	00462883          	lw	a7,4(a2)
     8a8:	0045a583          	lw	a1,4(a1)
     8ac:	3fe80663          	beq	a6,t5,c98 <Number_minus+0x404>
     8b0:	370f7063          	bgeu	t5,a6,c10 <Number_minus+0x37c>
     8b4:	41e80f33          	sub	t5,a6,t5
     8b8:	0fff7f13          	zext.b	t5,t5
     8bc:	00000e93          	li	t4,0
     8c0:	00100713          	li	a4,1
     8c4:	00000613          	li	a2,0
     8c8:	00271793          	slli	a5,a4,0x2
     8cc:	01e75f93          	srli	t6,a4,0x1e
     8d0:	00261e13          	slli	t3,a2,0x2
     8d4:	00e78733          	add	a4,a5,a4
     8d8:	01cfee33          	or	t3,t6,t3
     8dc:	00ce0e33          	add	t3,t3,a2
     8e0:	00f737b3          	sltu	a5,a4,a5
     8e4:	01c787b3          	add	a5,a5,t3
     8e8:	001e8e93          	addi	t4,t4,1
     8ec:	01f75613          	srli	a2,a4,0x1f
     8f0:	00179793          	slli	a5,a5,0x1
     8f4:	0ffefe93          	zext.b	t4,t4
     8f8:	00171713          	slli	a4,a4,0x1
     8fc:	00f66633          	or	a2,a2,a5
     900:	fddf14e3          	bne	t5,t4,8c8 <Number_minus+0x34>
     904:	02d60633          	mul	a2,a2,a3
     908:	02e888b3          	mul	a7,a7,a4
     90c:	02d707b3          	mul	a5,a4,a3
     910:	01160633          	add	a2,a2,a7
     914:	02d73733          	mulhu	a4,a4,a3
     918:	40f307b3          	sub	a5,t1,a5
     91c:	00f33333          	sltu	t1,t1,a5
     920:	00078693          	mv	a3,a5
     924:	00e60733          	add	a4,a2,a4
     928:	40e58733          	sub	a4,a1,a4
     92c:	40670733          	sub	a4,a4,t1
     930:	ccccd7b7          	lui	a5,0xccccd
     934:	ccd78893          	addi	a7,a5,-819 # cccccccd <__freertos_irq_stack_top+0xaccbcccd>
     938:	ccc78793          	addi	a5,a5,-820
     93c:	02f685b3          	mul	a1,a3,a5
     940:	20000e37          	lui	t3,0x20000
     944:	240e2f03          	lw	t5,576(t3) # 20000240 <__clz_tab+0x104>
     948:	244e2e83          	lw	t4,580(t3)
     94c:	03170633          	mul	a2,a4,a7
     950:	031687b3          	mul	a5,a3,a7
     954:	00b60633          	add	a2,a2,a1
     958:	0316b8b3          	mulhu	a7,a3,a7
     95c:	01e785b3          	add	a1,a5,t5
     960:	00f5b7b3          	sltu	a5,a1,a5
     964:	01f59313          	slli	t1,a1,0x1f
     968:	0015d593          	srli	a1,a1,0x1
     96c:	01160633          	add	a2,a2,a7
     970:	01d60633          	add	a2,a2,t4
     974:	00c787b3          	add	a5,a5,a2
     978:	0017d613          	srli	a2,a5,0x1
     97c:	00c36633          	or	a2,t1,a2
     980:	01f79793          	slli	a5,a5,0x1f
     984:	00b7e7b3          	or	a5,a5,a1
     988:	10cee263          	bltu	t4,a2,a8c <Number_minus+0x1f8>
     98c:	35d60263          	beq	a2,t4,cd0 <Number_minus+0x43c>
     990:	240e2e83          	lw	t4,576(t3)
     994:	244e2883          	lw	a7,580(t3)
     998:	10000337          	lui	t1,0x10000
     99c:	ccccde37          	lui	t3,0xccccd
     9a0:	ccde0593          	addi	a1,t3,-819 # cccccccd <__freertos_irq_stack_top+0xaccbcccd>
     9a4:	fff30313          	addi	t1,t1,-1 # fffffff <__stack_size+0xfff7fff>
     9a8:	00500f13          	li	t5,5
     9ac:	ccce0e13          	addi	t3,t3,-820
     9b0:	0a40006f          	j	a54 <Number_minus+0x1c0>
     9b4:	03e7f7b3          	remu	a5,a5,t5
     9b8:	0ffff813          	zext.b	a6,t6
     9bc:	00c787b3          	add	a5,a5,a2
     9c0:	40f68633          	sub	a2,a3,a5
     9c4:	41f7d793          	srai	a5,a5,0x1f
     9c8:	00c6b6b3          	sltu	a3,a3,a2
     9cc:	40f707b3          	sub	a5,a4,a5
     9d0:	40d787b3          	sub	a5,a5,a3
     9d4:	02b787b3          	mul	a5,a5,a1
     9d8:	03c606b3          	mul	a3,a2,t3
     9dc:	02b63733          	mulhu	a4,a2,a1
     9e0:	00d787b3          	add	a5,a5,a3
     9e4:	02b60633          	mul	a2,a2,a1
     9e8:	00e787b3          	add	a5,a5,a4
     9ec:	01f7d713          	srli	a4,a5,0x1f
     9f0:	00c70633          	add	a2,a4,a2
     9f4:	00e63733          	sltu	a4,a2,a4
     9f8:	00f70733          	add	a4,a4,a5
     9fc:	01f71693          	slli	a3,a4,0x1f
     a00:	00165613          	srli	a2,a2,0x1
     a04:	00c6e6b3          	or	a3,a3,a2
     a08:	40175713          	srai	a4,a4,0x1
     a0c:	03c68fb3          	mul	t6,a3,t3
     a10:	02b70633          	mul	a2,a4,a1
     a14:	02b687b3          	mul	a5,a3,a1
     a18:	01f60633          	add	a2,a2,t6
     a1c:	02b6b3b3          	mulhu	t2,a3,a1
     a20:	01d78fb3          	add	t6,a5,t4
     a24:	00ffb7b3          	sltu	a5,t6,a5
     a28:	01ff9293          	slli	t0,t6,0x1f
     a2c:	001fdf93          	srli	t6,t6,0x1
     a30:	00760633          	add	a2,a2,t2
     a34:	01160633          	add	a2,a2,a7
     a38:	00c787b3          	add	a5,a5,a2
     a3c:	0017d613          	srli	a2,a5,0x1
     a40:	00c2e633          	or	a2,t0,a2
     a44:	01f79793          	slli	a5,a5,0x1f
     a48:	01f7e7b3          	or	a5,a5,t6
     a4c:	04c8e063          	bltu	a7,a2,a8c <Number_minus+0x1f8>
     a50:	25160063          	beq	a2,a7,c90 <Number_minus+0x3fc>
     a54:	00471793          	slli	a5,a4,0x4
     a58:	01c6d613          	srli	a2,a3,0x1c
     a5c:	00c7e633          	or	a2,a5,a2
     a60:	00667fb3          	and	t6,a2,t1
     a64:	0066f7b3          	and	a5,a3,t1
     a68:	41f75613          	srai	a2,a4,0x1f
     a6c:	01f787b3          	add	a5,a5,t6
     a70:	01875293          	srli	t0,a4,0x18
     a74:	00367393          	andi	t2,a2,3
     a78:	005787b3          	add	a5,a5,t0
     a7c:	007787b3          	add	a5,a5,t2
     a80:	ffc67613          	andi	a2,a2,-4
     a84:	fff80f93          	addi	t6,a6,-1
     a88:	f20816e3          	bnez	a6,9b4 <Number_minus+0x120>
     a8c:	00e6e7b3          	or	a5,a3,a4
     a90:	20078e63          	beqz	a5,cac <Number_minus+0x418>
     a94:	ccccdeb7          	lui	t4,0xccccd
     a98:	10000e37          	lui	t3,0x10000
     a9c:	ccde8313          	addi	t1,t4,-819 # cccccccd <__freertos_irq_stack_top+0xaccbcccd>
     aa0:	00068f93          	mv	t6,a3
     aa4:	00070593          	mv	a1,a4
     aa8:	00000613          	li	a2,0
     aac:	fffe0e13          	addi	t3,t3,-1 # fffffff <__stack_size+0xfff7fff>
     ab0:	00500f13          	li	t5,5
     ab4:	ccce8e93          	addi	t4,t4,-820
     ab8:	00459793          	slli	a5,a1,0x4
     abc:	01cfd893          	srli	a7,t6,0x1c
     ac0:	0117e8b3          	or	a7,a5,a7
     ac4:	01c8f8b3          	and	a7,a7,t3
     ac8:	01cff7b3          	and	a5,t6,t3
     acc:	41f5d293          	srai	t0,a1,0x1f
     ad0:	0185d393          	srli	t2,a1,0x18
     ad4:	011787b3          	add	a5,a5,a7
     ad8:	007787b3          	add	a5,a5,t2
     adc:	0032f893          	andi	a7,t0,3
     ae0:	011787b3          	add	a5,a5,a7
     ae4:	03e7f7b3          	remu	a5,a5,t5
     ae8:	ffc2f293          	andi	t0,t0,-4
     aec:	00160613          	addi	a2,a2,1
     af0:	0ff67613          	zext.b	a2,a2
     af4:	005787b3          	add	a5,a5,t0
     af8:	40ff88b3          	sub	a7,t6,a5
     afc:	41f7d793          	srai	a5,a5,0x1f
     b00:	011fbfb3          	sltu	t6,t6,a7
     b04:	40f587b3          	sub	a5,a1,a5
     b08:	41f787b3          	sub	a5,a5,t6
     b0c:	026787b3          	mul	a5,a5,t1
     b10:	03d88fb3          	mul	t6,a7,t4
     b14:	0268b5b3          	mulhu	a1,a7,t1
     b18:	01f787b3          	add	a5,a5,t6
     b1c:	026888b3          	mul	a7,a7,t1
     b20:	00b787b3          	add	a5,a5,a1
     b24:	01f7d593          	srli	a1,a5,0x1f
     b28:	011588b3          	add	a7,a1,a7
     b2c:	00b8b5b3          	sltu	a1,a7,a1
     b30:	00f585b3          	add	a1,a1,a5
     b34:	01f59f93          	slli	t6,a1,0x1f
     b38:	0018d893          	srli	a7,a7,0x1
     b3c:	011fefb3          	or	t6,t6,a7
     b40:	4015d593          	srai	a1,a1,0x1
     b44:	00bfe7b3          	or	a5,t6,a1
     b48:	f60798e3          	bnez	a5,ab8 <Number_minus+0x224>
     b4c:	ccccde37          	lui	t3,0xccccd
     b50:	10000337          	lui	t1,0x10000
     b54:	ccde0893          	addi	a7,t3,-819 # cccccccd <__freertos_irq_stack_top+0xaccbcccd>
     b58:	00c00f13          	li	t5,12
     b5c:	fff30313          	addi	t1,t1,-1 # fffffff <__stack_size+0xfff7fff>
     b60:	00500e93          	li	t4,5
     b64:	ccce0e13          	addi	t3,t3,-820
     b68:	08cf7c63          	bgeu	t5,a2,c00 <Number_minus+0x36c>
     b6c:	00471793          	slli	a5,a4,0x4
     b70:	01c6d593          	srli	a1,a3,0x1c
     b74:	00b7e5b3          	or	a1,a5,a1
     b78:	0065f5b3          	and	a1,a1,t1
     b7c:	0066f7b3          	and	a5,a3,t1
     b80:	41f75f93          	srai	t6,a4,0x1f
     b84:	01875293          	srli	t0,a4,0x18
     b88:	00b787b3          	add	a5,a5,a1
     b8c:	005787b3          	add	a5,a5,t0
     b90:	003ff593          	andi	a1,t6,3
     b94:	00b787b3          	add	a5,a5,a1
     b98:	03d7f7b3          	remu	a5,a5,t4
     b9c:	ffcfff93          	andi	t6,t6,-4
     ba0:	01f787b3          	add	a5,a5,t6
     ba4:	40f685b3          	sub	a1,a3,a5
     ba8:	41f7d793          	srai	a5,a5,0x1f
     bac:	00b6b6b3          	sltu	a3,a3,a1
     bb0:	40f707b3          	sub	a5,a4,a5
     bb4:	40d787b3          	sub	a5,a5,a3
     bb8:	031787b3          	mul	a5,a5,a7
     bbc:	03c586b3          	mul	a3,a1,t3
     bc0:	0315b733          	mulhu	a4,a1,a7
     bc4:	00d787b3          	add	a5,a5,a3
     bc8:	031585b3          	mul	a1,a1,a7
     bcc:	00e787b3          	add	a5,a5,a4
     bd0:	01f7d713          	srli	a4,a5,0x1f
     bd4:	00b705b3          	add	a1,a4,a1
     bd8:	00e5b733          	sltu	a4,a1,a4
     bdc:	00f70733          	add	a4,a4,a5
     be0:	01f71693          	slli	a3,a4,0x1f
     be4:	0015d593          	srli	a1,a1,0x1
     be8:	00b6e6b3          	or	a3,a3,a1
     bec:	40175713          	srai	a4,a4,0x1
     bf0:	f6080ee3          	beqz	a6,b6c <Number_minus+0x2d8>
     bf4:	00180813          	addi	a6,a6,1
     bf8:	0ff87813          	zext.b	a6,a6
     bfc:	f6cf68e3          	bltu	t5,a2,b6c <Number_minus+0x2d8>
     c00:	00d52023          	sw	a3,0(a0)
     c04:	00e52223          	sw	a4,4(a0)
     c08:	01050423          	sb	a6,8(a0)
     c0c:	00008067          	ret
     c10:	410f0833          	sub	a6,t5,a6
     c14:	0ff87813          	zext.b	a6,a6
     c18:	00000e93          	li	t4,0
     c1c:	00100713          	li	a4,1
     c20:	00000613          	li	a2,0
     c24:	00271793          	slli	a5,a4,0x2
     c28:	01e75f93          	srli	t6,a4,0x1e
     c2c:	00261e13          	slli	t3,a2,0x2
     c30:	00e78733          	add	a4,a5,a4
     c34:	01cfee33          	or	t3,t6,t3
     c38:	00ce0e33          	add	t3,t3,a2
     c3c:	00f737b3          	sltu	a5,a4,a5
     c40:	01c787b3          	add	a5,a5,t3
     c44:	001e8e93          	addi	t4,t4,1
     c48:	01f75613          	srli	a2,a4,0x1f
     c4c:	00179793          	slli	a5,a5,0x1
     c50:	0ffefe93          	zext.b	t4,t4
     c54:	00171713          	slli	a4,a4,0x1
     c58:	00f66633          	or	a2,a2,a5
     c5c:	fd0e94e3          	bne	t4,a6,c24 <Number_minus+0x390>
     c60:	02e585b3          	mul	a1,a1,a4
     c64:	000f0813          	mv	a6,t5
     c68:	02660633          	mul	a2,a2,t1
     c6c:	026707b3          	mul	a5,a4,t1
     c70:	00b60633          	add	a2,a2,a1
     c74:	02673733          	mulhu	a4,a4,t1
     c78:	40d786b3          	sub	a3,a5,a3
     c7c:	00d7b7b3          	sltu	a5,a5,a3
     c80:	00e60733          	add	a4,a2,a4
     c84:	41170733          	sub	a4,a4,a7
     c88:	40f70733          	sub	a4,a4,a5
     c8c:	ca5ff06f          	j	930 <Number_minus+0x9c>
     c90:	dcfef2e3          	bgeu	t4,a5,a54 <Number_minus+0x1c0>
     c94:	df9ff06f          	j	a8c <Number_minus+0x1f8>
     c98:	40d306b3          	sub	a3,t1,a3
     c9c:	00d33333          	sltu	t1,t1,a3
     ca0:	411588b3          	sub	a7,a1,a7
     ca4:	40688733          	sub	a4,a7,t1
     ca8:	c89ff06f          	j	930 <Number_minus+0x9c>
     cac:	ccccde37          	lui	t3,0xccccd
     cb0:	10000337          	lui	t1,0x10000
     cb4:	ccde0893          	addi	a7,t3,-819 # cccccccd <__freertos_irq_stack_top+0xaccbcccd>
     cb8:	00000613          	li	a2,0
     cbc:	00c00f13          	li	t5,12
     cc0:	fff30313          	addi	t1,t1,-1 # fffffff <__stack_size+0xfff7fff>
     cc4:	00500e93          	li	t4,5
     cc8:	ccce0e13          	addi	t3,t3,-820
     ccc:	e9dff06f          	j	b68 <Number_minus+0x2d4>
     cd0:	ccff70e3          	bgeu	t5,a5,990 <Number_minus+0xfc>
     cd4:	db9ff06f          	j	a8c <Number_minus+0x1f8>

00000cd8 <Number_multiply>:
     cd8:	00062f83          	lw	t6,0(a2)
     cdc:	0005a683          	lw	a3,0(a1)
     ce0:	0045a803          	lw	a6,4(a1)
     ce4:	00462f03          	lw	t5,4(a2)
     ce8:	03f6b733          	mulhu	a4,a3,t6
     cec:	0085c583          	lbu	a1,8(a1)
     cf0:	00864603          	lbu	a2,8(a2)
     cf4:	ccccd7b7          	lui	a5,0xccccd
     cf8:	ccd78893          	addi	a7,a5,-819 # cccccccd <__freertos_irq_stack_top+0xaccbcccd>
     cfc:	ccc78793          	addi	a5,a5,-820
     d00:	00c58633          	add	a2,a1,a2
     d04:	20000337          	lui	t1,0x20000
     d08:	24032e83          	lw	t4,576(t1) # 20000240 <__clz_tab+0x104>
     d0c:	24432e03          	lw	t3,580(t1)
     d10:	02df0f33          	mul	t5,t5,a3
     d14:	0ff67613          	zext.b	a2,a2
     d18:	03f80833          	mul	a6,a6,t6
     d1c:	03f686b3          	mul	a3,a3,t6
     d20:	01e80833          	add	a6,a6,t5
     d24:	00e80733          	add	a4,a6,a4
     d28:	031705b3          	mul	a1,a4,a7
     d2c:	02f68833          	mul	a6,a3,a5
     d30:	031687b3          	mul	a5,a3,a7
     d34:	010585b3          	add	a1,a1,a6
     d38:	0316b8b3          	mulhu	a7,a3,a7
     d3c:	01d78833          	add	a6,a5,t4
     d40:	00f837b3          	sltu	a5,a6,a5
     d44:	01f81f13          	slli	t5,a6,0x1f
     d48:	00185813          	srli	a6,a6,0x1
     d4c:	011585b3          	add	a1,a1,a7
     d50:	01c585b3          	add	a1,a1,t3
     d54:	00b787b3          	add	a5,a5,a1
     d58:	0017d593          	srli	a1,a5,0x1
     d5c:	00bf65b3          	or	a1,t5,a1
     d60:	01f79793          	slli	a5,a5,0x1f
     d64:	0107e7b3          	or	a5,a5,a6
     d68:	10be6263          	bltu	t3,a1,e6c <Number_multiply+0x194>
     d6c:	2bc58863          	beq	a1,t3,101c <Number_multiply+0x344>
     d70:	ccccde37          	lui	t3,0xccccd
     d74:	24032e83          	lw	t4,576(t1)
     d78:	24432883          	lw	a7,580(t1)
     d7c:	10000337          	lui	t1,0x10000
     d80:	ccde0813          	addi	a6,t3,-819 # cccccccd <__freertos_irq_stack_top+0xaccbcccd>
     d84:	fff30313          	addi	t1,t1,-1 # fffffff <__stack_size+0xfff7fff>
     d88:	00500f13          	li	t5,5
     d8c:	ccce0e13          	addi	t3,t3,-820
     d90:	0a40006f          	j	e34 <Number_multiply+0x15c>
     d94:	03e7f7b3          	remu	a5,a5,t5
     d98:	0ffff613          	zext.b	a2,t6
     d9c:	00b787b3          	add	a5,a5,a1
     da0:	40f685b3          	sub	a1,a3,a5
     da4:	41f7d793          	srai	a5,a5,0x1f
     da8:	00b6b6b3          	sltu	a3,a3,a1
     dac:	40f707b3          	sub	a5,a4,a5
     db0:	40d787b3          	sub	a5,a5,a3
     db4:	030787b3          	mul	a5,a5,a6
     db8:	03c586b3          	mul	a3,a1,t3
     dbc:	0305b733          	mulhu	a4,a1,a6
     dc0:	00d787b3          	add	a5,a5,a3
     dc4:	030585b3          	mul	a1,a1,a6
     dc8:	00e787b3          	add	a5,a5,a4
     dcc:	01f7d713          	srli	a4,a5,0x1f
     dd0:	00b705b3          	add	a1,a4,a1
     dd4:	00e5b733          	sltu	a4,a1,a4
     dd8:	00f70733          	add	a4,a4,a5
     ddc:	01f71693          	slli	a3,a4,0x1f
     de0:	0015d593          	srli	a1,a1,0x1
     de4:	00b6e6b3          	or	a3,a3,a1
     de8:	40175713          	srai	a4,a4,0x1
     dec:	03c68fb3          	mul	t6,a3,t3
     df0:	030705b3          	mul	a1,a4,a6
     df4:	030687b3          	mul	a5,a3,a6
     df8:	01f585b3          	add	a1,a1,t6
     dfc:	0306b3b3          	mulhu	t2,a3,a6
     e00:	01d78fb3          	add	t6,a5,t4
     e04:	00ffb7b3          	sltu	a5,t6,a5
     e08:	01ff9293          	slli	t0,t6,0x1f
     e0c:	001fdf93          	srli	t6,t6,0x1
     e10:	007585b3          	add	a1,a1,t2
     e14:	011585b3          	add	a1,a1,a7
     e18:	00b787b3          	add	a5,a5,a1
     e1c:	0017d593          	srli	a1,a5,0x1
     e20:	00b2e5b3          	or	a1,t0,a1
     e24:	01f79793          	slli	a5,a5,0x1f
     e28:	01f7e7b3          	or	a5,a5,t6
     e2c:	04b8e063          	bltu	a7,a1,e6c <Number_multiply+0x194>
     e30:	1d158063          	beq	a1,a7,ff0 <Number_multiply+0x318>
     e34:	00471793          	slli	a5,a4,0x4
     e38:	01c6d593          	srli	a1,a3,0x1c
     e3c:	00b7e5b3          	or	a1,a5,a1
     e40:	0065ffb3          	and	t6,a1,t1
     e44:	0066f7b3          	and	a5,a3,t1
     e48:	41f75593          	srai	a1,a4,0x1f
     e4c:	01f787b3          	add	a5,a5,t6
     e50:	01875293          	srli	t0,a4,0x18
     e54:	0035f393          	andi	t2,a1,3
     e58:	005787b3          	add	a5,a5,t0
     e5c:	007787b3          	add	a5,a5,t2
     e60:	ffc5f593          	andi	a1,a1,-4
     e64:	fff60f93          	addi	t6,a2,-1
     e68:	f20616e3          	bnez	a2,d94 <Number_multiply+0xbc>
     e6c:	00e6e7b3          	or	a5,a3,a4
     e70:	18078463          	beqz	a5,ff8 <Number_multiply+0x320>
     e74:	ccccdeb7          	lui	t4,0xccccd
     e78:	10000e37          	lui	t3,0x10000
     e7c:	ccde8313          	addi	t1,t4,-819 # cccccccd <__freertos_irq_stack_top+0xaccbcccd>
     e80:	00068f93          	mv	t6,a3
     e84:	00070813          	mv	a6,a4
     e88:	00000593          	li	a1,0
     e8c:	fffe0e13          	addi	t3,t3,-1 # fffffff <__stack_size+0xfff7fff>
     e90:	00500f13          	li	t5,5
     e94:	ccce8e93          	addi	t4,t4,-820
     e98:	00481793          	slli	a5,a6,0x4
     e9c:	01cfd893          	srli	a7,t6,0x1c
     ea0:	0117e8b3          	or	a7,a5,a7
     ea4:	01c8f8b3          	and	a7,a7,t3
     ea8:	01cff7b3          	and	a5,t6,t3
     eac:	41f85293          	srai	t0,a6,0x1f
     eb0:	01885393          	srli	t2,a6,0x18
     eb4:	011787b3          	add	a5,a5,a7
     eb8:	007787b3          	add	a5,a5,t2
     ebc:	0032f893          	andi	a7,t0,3
     ec0:	011787b3          	add	a5,a5,a7
     ec4:	03e7f7b3          	remu	a5,a5,t5
     ec8:	ffc2f293          	andi	t0,t0,-4
     ecc:	00158593          	addi	a1,a1,1
     ed0:	0ff5f593          	zext.b	a1,a1
     ed4:	005787b3          	add	a5,a5,t0
     ed8:	40ff88b3          	sub	a7,t6,a5
     edc:	41f7d793          	srai	a5,a5,0x1f
     ee0:	011fbfb3          	sltu	t6,t6,a7
     ee4:	40f807b3          	sub	a5,a6,a5
     ee8:	41f787b3          	sub	a5,a5,t6
     eec:	026787b3          	mul	a5,a5,t1
     ef0:	03d88fb3          	mul	t6,a7,t4
     ef4:	0268b833          	mulhu	a6,a7,t1
     ef8:	01f787b3          	add	a5,a5,t6
     efc:	026888b3          	mul	a7,a7,t1
     f00:	010787b3          	add	a5,a5,a6
     f04:	01f7d813          	srli	a6,a5,0x1f
     f08:	011808b3          	add	a7,a6,a7
     f0c:	0108b833          	sltu	a6,a7,a6
     f10:	00f80833          	add	a6,a6,a5
     f14:	01f81f93          	slli	t6,a6,0x1f
     f18:	0018d893          	srli	a7,a7,0x1
     f1c:	011fefb3          	or	t6,t6,a7
     f20:	40185813          	srai	a6,a6,0x1
     f24:	010fe7b3          	or	a5,t6,a6
     f28:	f60798e3          	bnez	a5,e98 <Number_multiply+0x1c0>
     f2c:	ccccde37          	lui	t3,0xccccd
     f30:	10000337          	lui	t1,0x10000
     f34:	ccde0893          	addi	a7,t3,-819 # cccccccd <__freertos_irq_stack_top+0xaccbcccd>
     f38:	00c00f13          	li	t5,12
     f3c:	fff30313          	addi	t1,t1,-1 # fffffff <__stack_size+0xfff7fff>
     f40:	00500e93          	li	t4,5
     f44:	ccce0e13          	addi	t3,t3,-820
     f48:	08bf7c63          	bgeu	t5,a1,fe0 <Number_multiply+0x308>
     f4c:	00471793          	slli	a5,a4,0x4
     f50:	01c6d813          	srli	a6,a3,0x1c
     f54:	0107e833          	or	a6,a5,a6
     f58:	00687833          	and	a6,a6,t1
     f5c:	0066f7b3          	and	a5,a3,t1
     f60:	41f75f93          	srai	t6,a4,0x1f
     f64:	01875293          	srli	t0,a4,0x18
     f68:	010787b3          	add	a5,a5,a6
     f6c:	005787b3          	add	a5,a5,t0
     f70:	003ff813          	andi	a6,t6,3
     f74:	010787b3          	add	a5,a5,a6
     f78:	03d7f7b3          	remu	a5,a5,t4
     f7c:	ffcfff93          	andi	t6,t6,-4
     f80:	01f787b3          	add	a5,a5,t6
     f84:	40f68833          	sub	a6,a3,a5
     f88:	41f7d793          	srai	a5,a5,0x1f
     f8c:	0106b6b3          	sltu	a3,a3,a6
     f90:	40f707b3          	sub	a5,a4,a5
     f94:	40d787b3          	sub	a5,a5,a3
     f98:	031787b3          	mul	a5,a5,a7
     f9c:	03c806b3          	mul	a3,a6,t3
     fa0:	03183733          	mulhu	a4,a6,a7
     fa4:	00d787b3          	add	a5,a5,a3
     fa8:	03180833          	mul	a6,a6,a7
     fac:	00e787b3          	add	a5,a5,a4
     fb0:	01f7d713          	srli	a4,a5,0x1f
     fb4:	01070833          	add	a6,a4,a6
     fb8:	00e83733          	sltu	a4,a6,a4
     fbc:	00f70733          	add	a4,a4,a5
     fc0:	01f71693          	slli	a3,a4,0x1f
     fc4:	00185813          	srli	a6,a6,0x1
     fc8:	0106e6b3          	or	a3,a3,a6
     fcc:	40175713          	srai	a4,a4,0x1
     fd0:	f6060ee3          	beqz	a2,f4c <Number_multiply+0x274>
     fd4:	00160613          	addi	a2,a2,1
     fd8:	0ff67613          	zext.b	a2,a2
     fdc:	f6bf68e3          	bltu	t5,a1,f4c <Number_multiply+0x274>
     fe0:	00d52023          	sw	a3,0(a0)
     fe4:	00e52223          	sw	a4,4(a0)
     fe8:	00c50423          	sb	a2,8(a0)
     fec:	00008067          	ret
     ff0:	e4fef2e3          	bgeu	t4,a5,e34 <Number_multiply+0x15c>
     ff4:	e79ff06f          	j	e6c <Number_multiply+0x194>
     ff8:	ccccde37          	lui	t3,0xccccd
     ffc:	10000337          	lui	t1,0x10000
    1000:	ccde0893          	addi	a7,t3,-819 # cccccccd <__freertos_irq_stack_top+0xaccbcccd>
    1004:	00000593          	li	a1,0
    1008:	00c00f13          	li	t5,12
    100c:	fff30313          	addi	t1,t1,-1 # fffffff <__stack_size+0xfff7fff>
    1010:	00500e93          	li	t4,5
    1014:	ccce0e13          	addi	t3,t3,-820
    1018:	f31ff06f          	j	f48 <Number_multiply+0x270>
    101c:	d4fefae3          	bgeu	t4,a5,d70 <Number_multiply+0x98>
    1020:	e4dff06f          	j	e6c <Number_multiply+0x194>

00001024 <Number_divide>:
    1024:	fe010113          	addi	sp,sp,-32
    1028:	00812c23          	sw	s0,24(sp)
    102c:	00912a23          	sw	s1,20(sp)
    1030:	00058413          	mv	s0,a1
    1034:	00050493          	mv	s1,a0
    1038:	0005a503          	lw	a0,0(a1)
    103c:	0045a583          	lw	a1,4(a1)
    1040:	00112e23          	sw	ra,28(sp)
    1044:	01212823          	sw	s2,16(sp)
    1048:	01312623          	sw	s3,12(sp)
    104c:	01412423          	sw	s4,8(sp)
    1050:	01512223          	sw	s5,4(sp)
    1054:	00060a13          	mv	s4,a2
    1058:	5ad020ef          	jal	ra,3e04 <__floatdidf>
    105c:	00050993          	mv	s3,a0
    1060:	00058913          	mv	s2,a1
    1064:	000a2503          	lw	a0,0(s4)
    1068:	004a2583          	lw	a1,4(s4)
    106c:	599020ef          	jal	ra,3e04 <__floatdidf>
    1070:	00050613          	mv	a2,a0
    1074:	00058693          	mv	a3,a1
    1078:	00098513          	mv	a0,s3
    107c:	00090593          	mv	a1,s2
    1080:	5e9010ef          	jal	ra,2e68 <__divdf3>
    1084:	00844403          	lbu	s0,8(s0)
    1088:	008a4a03          	lbu	s4,8(s4)
    108c:	00050993          	mv	s3,a0
    1090:	00058913          	mv	s2,a1
    1094:	47d020ef          	jal	ra,3d10 <__fixdfdi>
    1098:	00050813          	mv	a6,a0
    109c:	00058613          	mv	a2,a1
    10a0:	00a5e7b3          	or	a5,a1,a0
    10a4:	55440c63          	beq	s0,s4,15fc <Number_divide+0x5d8>
    10a8:	2a8a7663          	bgeu	s4,s0,1354 <Number_divide+0x330>
    10ac:	2e0786e3          	beqz	a5,1b98 <Number_divide+0xb74>
    10b0:	ccccde37          	lui	t3,0xccccd
    10b4:	10000337          	lui	t1,0x10000
    10b8:	ccde0893          	addi	a7,t3,-819 # cccccccd <__freertos_irq_stack_top+0xaccbcccd>
    10bc:	00050713          	mv	a4,a0
    10c0:	00000a93          	li	s5,0
    10c4:	fff30313          	addi	t1,t1,-1 # fffffff <__stack_size+0xfff7fff>
    10c8:	00500e93          	li	t4,5
    10cc:	ccce0e13          	addi	t3,t3,-820
    10d0:	00459793          	slli	a5,a1,0x4
    10d4:	01c75693          	srli	a3,a4,0x1c
    10d8:	00d7e6b3          	or	a3,a5,a3
    10dc:	0066f6b3          	and	a3,a3,t1
    10e0:	006777b3          	and	a5,a4,t1
    10e4:	41f5d513          	srai	a0,a1,0x1f
    10e8:	0185df13          	srli	t5,a1,0x18
    10ec:	00d787b3          	add	a5,a5,a3
    10f0:	01e787b3          	add	a5,a5,t5
    10f4:	00357693          	andi	a3,a0,3
    10f8:	00d787b3          	add	a5,a5,a3
    10fc:	03d7f7b3          	remu	a5,a5,t4
    1100:	ffc57513          	andi	a0,a0,-4
    1104:	001a8693          	addi	a3,s5,1
    1108:	000a8f13          	mv	t5,s5
    110c:	0ff6fa93          	zext.b	s5,a3
    1110:	00a787b3          	add	a5,a5,a0
    1114:	40f706b3          	sub	a3,a4,a5
    1118:	41f7d793          	srai	a5,a5,0x1f
    111c:	00d73733          	sltu	a4,a4,a3
    1120:	40f587b3          	sub	a5,a1,a5
    1124:	40e787b3          	sub	a5,a5,a4
    1128:	03c685b3          	mul	a1,a3,t3
    112c:	031787b3          	mul	a5,a5,a7
    1130:	0316b733          	mulhu	a4,a3,a7
    1134:	00b787b3          	add	a5,a5,a1
    1138:	031686b3          	mul	a3,a3,a7
    113c:	00e787b3          	add	a5,a5,a4
    1140:	01f7d593          	srli	a1,a5,0x1f
    1144:	00d586b3          	add	a3,a1,a3
    1148:	00b6b5b3          	sltu	a1,a3,a1
    114c:	00f585b3          	add	a1,a1,a5
    1150:	01f59713          	slli	a4,a1,0x1f
    1154:	0016d693          	srli	a3,a3,0x1
    1158:	00d76733          	or	a4,a4,a3
    115c:	4015d593          	srai	a1,a1,0x1
    1160:	00b767b3          	or	a5,a4,a1
    1164:	f60796e3          	bnez	a5,10d0 <Number_divide+0xac>
    1168:	00c00793          	li	a5,12
    116c:	7757ec63          	bltu	a5,s5,18e4 <Number_divide+0x8c0>
    1170:	00c00893          	li	a7,12
    1174:	415888b3          	sub	a7,a7,s5
    1178:	0ff8f893          	zext.b	a7,a7
    117c:	220884e3          	beqz	a7,1ba4 <Number_divide+0xb80>
    1180:	00000693          	li	a3,0
    1184:	00100513          	li	a0,1
    1188:	00000593          	li	a1,0
    118c:	00251793          	slli	a5,a0,0x2
    1190:	01e55613          	srli	a2,a0,0x1e
    1194:	00259713          	slli	a4,a1,0x2
    1198:	00a78533          	add	a0,a5,a0
    119c:	00e66733          	or	a4,a2,a4
    11a0:	00b70733          	add	a4,a4,a1
    11a4:	00f537b3          	sltu	a5,a0,a5
    11a8:	00e787b3          	add	a5,a5,a4
    11ac:	00168693          	addi	a3,a3,1
    11b0:	01f55593          	srli	a1,a0,0x1f
    11b4:	00179793          	slli	a5,a5,0x1
    11b8:	0ff6f693          	zext.b	a3,a3
    11bc:	00151513          	slli	a0,a0,0x1
    11c0:	00f5e5b3          	or	a1,a1,a5
    11c4:	fd16e4e3          	bltu	a3,a7,118c <Number_divide+0x168>
    11c8:	43d020ef          	jal	ra,3e04 <__floatdidf>
    11cc:	00098613          	mv	a2,s3
    11d0:	00090693          	mv	a3,s2
    11d4:	418020ef          	jal	ra,35ec <__muldf3>
    11d8:	339020ef          	jal	ra,3d10 <__fixdfdi>
    11dc:	00058613          	mv	a2,a1
    11e0:	00050813          	mv	a6,a0
    11e4:	ccccd7b7          	lui	a5,0xccccd
    11e8:	41440733          	sub	a4,s0,s4
    11ec:	ccd78513          	addi	a0,a5,-819 # cccccccd <__freertos_irq_stack_top+0xaccbcccd>
    11f0:	ccc78593          	addi	a1,a5,-820
    11f4:	00c70713          	addi	a4,a4,12
    11f8:	02a606b3          	mul	a3,a2,a0
    11fc:	41570733          	sub	a4,a4,s5
    1200:	0ff77413          	zext.b	s0,a4
    1204:	200007b7          	lui	a5,0x20000
    1208:	2407a303          	lw	t1,576(a5) # 20000240 <__clz_tab+0x104>
    120c:	2447a883          	lw	a7,580(a5)
    1210:	02b805b3          	mul	a1,a6,a1
    1214:	02a80733          	mul	a4,a6,a0
    1218:	00b686b3          	add	a3,a3,a1
    121c:	02a83533          	mulhu	a0,a6,a0
    1220:	006705b3          	add	a1,a4,t1
    1224:	00e5b733          	sltu	a4,a1,a4
    1228:	01f59e13          	slli	t3,a1,0x1f
    122c:	0015d593          	srli	a1,a1,0x1
    1230:	00a686b3          	add	a3,a3,a0
    1234:	011686b3          	add	a3,a3,a7
    1238:	00d70733          	add	a4,a4,a3
    123c:	00175693          	srli	a3,a4,0x1
    1240:	00de66b3          	or	a3,t3,a3
    1244:	01f71713          	slli	a4,a4,0x1f
    1248:	00b76733          	or	a4,a4,a1
    124c:	4ed8e863          	bltu	a7,a3,173c <Number_divide+0x718>
    1250:	1d1682e3          	beq	a3,a7,1c14 <Number_divide+0xbf0>
    1254:	2407a303          	lw	t1,576(a5)
    1258:	2447a583          	lw	a1,580(a5)
    125c:	ccccd8b7          	lui	a7,0xccccd
    1260:	10000537          	lui	a0,0x10000
    1264:	ccd88693          	addi	a3,a7,-819 # cccccccd <__freertos_irq_stack_top+0xaccbcccd>
    1268:	fff50513          	addi	a0,a0,-1 # fffffff <__stack_size+0xfff7fff>
    126c:	00500e13          	li	t3,5
    1270:	ccc88893          	addi	a7,a7,-820
    1274:	00461793          	slli	a5,a2,0x4
    1278:	01c85713          	srli	a4,a6,0x1c
    127c:	00e7e733          	or	a4,a5,a4
    1280:	00a77eb3          	and	t4,a4,a0
    1284:	00a877b3          	and	a5,a6,a0
    1288:	41f65713          	srai	a4,a2,0x1f
    128c:	01d787b3          	add	a5,a5,t4
    1290:	01865f13          	srli	t5,a2,0x18
    1294:	00377f93          	andi	t6,a4,3
    1298:	01e787b3          	add	a5,a5,t5
    129c:	01f787b3          	add	a5,a5,t6
    12a0:	ffc77713          	andi	a4,a4,-4
    12a4:	fff40e93          	addi	t4,s0,-1
    12a8:	48040a63          	beqz	s0,173c <Number_divide+0x718>
    12ac:	03c7f7b3          	remu	a5,a5,t3
    12b0:	0ffef413          	zext.b	s0,t4
    12b4:	00e787b3          	add	a5,a5,a4
    12b8:	40f80733          	sub	a4,a6,a5
    12bc:	41f7d793          	srai	a5,a5,0x1f
    12c0:	00e83833          	sltu	a6,a6,a4
    12c4:	40f607b3          	sub	a5,a2,a5
    12c8:	410787b3          	sub	a5,a5,a6
    12cc:	02d787b3          	mul	a5,a5,a3
    12d0:	03170833          	mul	a6,a4,a7
    12d4:	02d73633          	mulhu	a2,a4,a3
    12d8:	010787b3          	add	a5,a5,a6
    12dc:	02d70733          	mul	a4,a4,a3
    12e0:	00c787b3          	add	a5,a5,a2
    12e4:	01f7d613          	srli	a2,a5,0x1f
    12e8:	00e60733          	add	a4,a2,a4
    12ec:	00c73633          	sltu	a2,a4,a2
    12f0:	00f60633          	add	a2,a2,a5
    12f4:	01f61813          	slli	a6,a2,0x1f
    12f8:	00175713          	srli	a4,a4,0x1
    12fc:	00e86833          	or	a6,a6,a4
    1300:	40165613          	srai	a2,a2,0x1
    1304:	03180eb3          	mul	t4,a6,a7
    1308:	02d60733          	mul	a4,a2,a3
    130c:	02d807b3          	mul	a5,a6,a3
    1310:	01d70733          	add	a4,a4,t4
    1314:	02d83fb3          	mulhu	t6,a6,a3
    1318:	00678eb3          	add	t4,a5,t1
    131c:	00feb7b3          	sltu	a5,t4,a5
    1320:	01fe9f13          	slli	t5,t4,0x1f
    1324:	001ede93          	srli	t4,t4,0x1
    1328:	01f70733          	add	a4,a4,t6
    132c:	00b70733          	add	a4,a4,a1
    1330:	00e787b3          	add	a5,a5,a4
    1334:	0017d713          	srli	a4,a5,0x1
    1338:	00ef6733          	or	a4,t5,a4
    133c:	01f79793          	slli	a5,a5,0x1f
    1340:	01d7e7b3          	or	a5,a5,t4
    1344:	3ee5ec63          	bltu	a1,a4,173c <Number_divide+0x718>
    1348:	f2b716e3          	bne	a4,a1,1274 <Number_divide+0x250>
    134c:	f2f374e3          	bgeu	t1,a5,1274 <Number_divide+0x250>
    1350:	3ec0006f          	j	173c <Number_divide+0x718>
    1354:	02078ce3          	beqz	a5,1b8c <Number_divide+0xb68>
    1358:	ccccde37          	lui	t3,0xccccd
    135c:	10000337          	lui	t1,0x10000
    1360:	ccde0893          	addi	a7,t3,-819 # cccccccd <__freertos_irq_stack_top+0xaccbcccd>
    1364:	00050713          	mv	a4,a0
    1368:	00000a93          	li	s5,0
    136c:	fff30313          	addi	t1,t1,-1 # fffffff <__stack_size+0xfff7fff>
    1370:	00500e93          	li	t4,5
    1374:	ccce0e13          	addi	t3,t3,-820
    1378:	00459793          	slli	a5,a1,0x4
    137c:	01c75693          	srli	a3,a4,0x1c
    1380:	00d7e6b3          	or	a3,a5,a3
    1384:	0066f6b3          	and	a3,a3,t1
    1388:	006777b3          	and	a5,a4,t1
    138c:	41f5d513          	srai	a0,a1,0x1f
    1390:	0185df13          	srli	t5,a1,0x18
    1394:	00d787b3          	add	a5,a5,a3
    1398:	01e787b3          	add	a5,a5,t5
    139c:	00357693          	andi	a3,a0,3
    13a0:	00d787b3          	add	a5,a5,a3
    13a4:	03d7f7b3          	remu	a5,a5,t4
    13a8:	ffc57513          	andi	a0,a0,-4
    13ac:	001a8693          	addi	a3,s5,1
    13b0:	000a8f13          	mv	t5,s5
    13b4:	0ff6fa93          	zext.b	s5,a3
    13b8:	00a787b3          	add	a5,a5,a0
    13bc:	40f706b3          	sub	a3,a4,a5
    13c0:	41f7d793          	srai	a5,a5,0x1f
    13c4:	00d73733          	sltu	a4,a4,a3
    13c8:	40f587b3          	sub	a5,a1,a5
    13cc:	40e787b3          	sub	a5,a5,a4
    13d0:	03c685b3          	mul	a1,a3,t3
    13d4:	031787b3          	mul	a5,a5,a7
    13d8:	0316b733          	mulhu	a4,a3,a7
    13dc:	00b787b3          	add	a5,a5,a1
    13e0:	031686b3          	mul	a3,a3,a7
    13e4:	00e787b3          	add	a5,a5,a4
    13e8:	01f7d593          	srli	a1,a5,0x1f
    13ec:	00d586b3          	add	a3,a1,a3
    13f0:	00b6b5b3          	sltu	a1,a3,a1
    13f4:	00f585b3          	add	a1,a1,a5
    13f8:	01f59713          	slli	a4,a1,0x1f
    13fc:	0016d693          	srli	a3,a3,0x1
    1400:	00d76733          	or	a4,a4,a3
    1404:	4015d593          	srai	a1,a1,0x1
    1408:	00b767b3          	or	a5,a4,a1
    140c:	f60796e3          	bnez	a5,1378 <Number_divide+0x354>
    1410:	00c00793          	li	a5,12
    1414:	5357e263          	bltu	a5,s5,1938 <Number_divide+0x914>
    1418:	00c00893          	li	a7,12
    141c:	415888b3          	sub	a7,a7,s5
    1420:	0ff8f893          	zext.b	a7,a7
    1424:	78088463          	beqz	a7,1bac <Number_divide+0xb88>
    1428:	00000693          	li	a3,0
    142c:	00100513          	li	a0,1
    1430:	00000593          	li	a1,0
    1434:	00251793          	slli	a5,a0,0x2
    1438:	01e55613          	srli	a2,a0,0x1e
    143c:	00259713          	slli	a4,a1,0x2
    1440:	00a78533          	add	a0,a5,a0
    1444:	00e66733          	or	a4,a2,a4
    1448:	00b70733          	add	a4,a4,a1
    144c:	00f537b3          	sltu	a5,a0,a5
    1450:	00e787b3          	add	a5,a5,a4
    1454:	00168693          	addi	a3,a3,1
    1458:	01f55593          	srli	a1,a0,0x1f
    145c:	00179793          	slli	a5,a5,0x1
    1460:	0ff6f693          	zext.b	a3,a3
    1464:	00151513          	slli	a0,a0,0x1
    1468:	00f5e5b3          	or	a1,a1,a5
    146c:	fd16e4e3          	bltu	a3,a7,1434 <Number_divide+0x410>
    1470:	195020ef          	jal	ra,3e04 <__floatdidf>
    1474:	00098613          	mv	a2,s3
    1478:	00090693          	mv	a3,s2
    147c:	170020ef          	jal	ra,35ec <__muldf3>
    1480:	091020ef          	jal	ra,3d10 <__fixdfdi>
    1484:	00058613          	mv	a2,a1
    1488:	00050813          	mv	a6,a0
    148c:	ccccd7b7          	lui	a5,0xccccd
    1490:	ccd78513          	addi	a0,a5,-819 # cccccccd <__freertos_irq_stack_top+0xaccbcccd>
    1494:	ccc78593          	addi	a1,a5,-820
    1498:	02a606b3          	mul	a3,a2,a0
    149c:	200007b7          	lui	a5,0x20000
    14a0:	2407a303          	lw	t1,576(a5) # 20000240 <__clz_tab+0x104>
    14a4:	2447a883          	lw	a7,580(a5)
    14a8:	41440433          	sub	s0,s0,s4
    14ac:	00c40413          	addi	s0,s0,12
    14b0:	41540433          	sub	s0,s0,s5
    14b4:	0ff47413          	zext.b	s0,s0
    14b8:	02b805b3          	mul	a1,a6,a1
    14bc:	02a80733          	mul	a4,a6,a0
    14c0:	00b686b3          	add	a3,a3,a1
    14c4:	02a83533          	mulhu	a0,a6,a0
    14c8:	006705b3          	add	a1,a4,t1
    14cc:	00e5b733          	sltu	a4,a1,a4
    14d0:	01f59e13          	slli	t3,a1,0x1f
    14d4:	0015d593          	srli	a1,a1,0x1
    14d8:	00a686b3          	add	a3,a3,a0
    14dc:	011686b3          	add	a3,a3,a7
    14e0:	00d70733          	add	a4,a4,a3
    14e4:	00175693          	srli	a3,a4,0x1
    14e8:	00de66b3          	or	a3,t3,a3
    14ec:	01f71713          	slli	a4,a4,0x1f
    14f0:	00b76733          	or	a4,a4,a1
    14f4:	24d8e463          	bltu	a7,a3,173c <Number_divide+0x718>
    14f8:	73168263          	beq	a3,a7,1c1c <Number_divide+0xbf8>
    14fc:	2407a303          	lw	t1,576(a5)
    1500:	2447a583          	lw	a1,580(a5)
    1504:	ccccd8b7          	lui	a7,0xccccd
    1508:	10000537          	lui	a0,0x10000
    150c:	ccd88693          	addi	a3,a7,-819 # cccccccd <__freertos_irq_stack_top+0xaccbcccd>
    1510:	fff50513          	addi	a0,a0,-1 # fffffff <__stack_size+0xfff7fff>
    1514:	00500e13          	li	t3,5
    1518:	ccc88893          	addi	a7,a7,-820
    151c:	00461793          	slli	a5,a2,0x4
    1520:	01c85713          	srli	a4,a6,0x1c
    1524:	00e7e733          	or	a4,a5,a4
    1528:	00a77eb3          	and	t4,a4,a0
    152c:	00a877b3          	and	a5,a6,a0
    1530:	41f65713          	srai	a4,a2,0x1f
    1534:	01d787b3          	add	a5,a5,t4
    1538:	01865f13          	srli	t5,a2,0x18
    153c:	00377f93          	andi	t6,a4,3
    1540:	01e787b3          	add	a5,a5,t5
    1544:	01f787b3          	add	a5,a5,t6
    1548:	ffc77713          	andi	a4,a4,-4
    154c:	fff40e93          	addi	t4,s0,-1
    1550:	1e040663          	beqz	s0,173c <Number_divide+0x718>
    1554:	03c7f7b3          	remu	a5,a5,t3
    1558:	0ffef413          	zext.b	s0,t4
    155c:	00e787b3          	add	a5,a5,a4
    1560:	40f80733          	sub	a4,a6,a5
    1564:	41f7d793          	srai	a5,a5,0x1f
    1568:	00e83833          	sltu	a6,a6,a4
    156c:	40f607b3          	sub	a5,a2,a5
    1570:	410787b3          	sub	a5,a5,a6
    1574:	02d787b3          	mul	a5,a5,a3
    1578:	03170833          	mul	a6,a4,a7
    157c:	02d73633          	mulhu	a2,a4,a3
    1580:	010787b3          	add	a5,a5,a6
    1584:	02d70733          	mul	a4,a4,a3
    1588:	00c787b3          	add	a5,a5,a2
    158c:	01f7d613          	srli	a2,a5,0x1f
    1590:	00e60733          	add	a4,a2,a4
    1594:	00c73633          	sltu	a2,a4,a2
    1598:	00f60633          	add	a2,a2,a5
    159c:	01f61813          	slli	a6,a2,0x1f
    15a0:	00175713          	srli	a4,a4,0x1
    15a4:	00e86833          	or	a6,a6,a4
    15a8:	40165613          	srai	a2,a2,0x1
    15ac:	03180eb3          	mul	t4,a6,a7
    15b0:	02d60733          	mul	a4,a2,a3
    15b4:	02d807b3          	mul	a5,a6,a3
    15b8:	01d70733          	add	a4,a4,t4
    15bc:	02d83fb3          	mulhu	t6,a6,a3
    15c0:	00678eb3          	add	t4,a5,t1
    15c4:	00feb7b3          	sltu	a5,t4,a5
    15c8:	01fe9f13          	slli	t5,t4,0x1f
    15cc:	001ede93          	srli	t4,t4,0x1
    15d0:	01f70733          	add	a4,a4,t6
    15d4:	00b70733          	add	a4,a4,a1
    15d8:	00e787b3          	add	a5,a5,a4
    15dc:	0017d713          	srli	a4,a5,0x1
    15e0:	00ef6733          	or	a4,t5,a4
    15e4:	01f79793          	slli	a5,a5,0x1f
    15e8:	01d7e7b3          	or	a5,a5,t4
    15ec:	14e5e863          	bltu	a1,a4,173c <Number_divide+0x718>
    15f0:	f2b716e3          	bne	a4,a1,151c <Number_divide+0x4f8>
    15f4:	f2f374e3          	bgeu	t1,a5,151c <Number_divide+0x4f8>
    15f8:	1440006f          	j	173c <Number_divide+0x718>
    15fc:	58078463          	beqz	a5,1b84 <Number_divide+0xb60>
    1600:	ccccdeb7          	lui	t4,0xccccd
    1604:	10000e37          	lui	t3,0x10000
    1608:	ccde8313          	addi	t1,t4,-819 # cccccccd <__freertos_irq_stack_top+0xaccbcccd>
    160c:	00050293          	mv	t0,a0
    1610:	00058713          	mv	a4,a1
    1614:	00000893          	li	a7,0
    1618:	fffe0e13          	addi	t3,t3,-1 # fffffff <__stack_size+0xfff7fff>
    161c:	00500f13          	li	t5,5
    1620:	ccce8e93          	addi	t4,t4,-820
    1624:	00471793          	slli	a5,a4,0x4
    1628:	01c2d693          	srli	a3,t0,0x1c
    162c:	00d7e6b3          	or	a3,a5,a3
    1630:	01c6f6b3          	and	a3,a3,t3
    1634:	01c2f7b3          	and	a5,t0,t3
    1638:	41f75f93          	srai	t6,a4,0x1f
    163c:	01875393          	srli	t2,a4,0x18
    1640:	00d787b3          	add	a5,a5,a3
    1644:	007787b3          	add	a5,a5,t2
    1648:	003ff693          	andi	a3,t6,3
    164c:	00d787b3          	add	a5,a5,a3
    1650:	03e7f7b3          	remu	a5,a5,t5
    1654:	ffcff693          	andi	a3,t6,-4
    1658:	00188393          	addi	t2,a7,1
    165c:	00088f93          	mv	t6,a7
    1660:	0ff3f893          	zext.b	a7,t2
    1664:	00d787b3          	add	a5,a5,a3
    1668:	40f286b3          	sub	a3,t0,a5
    166c:	41f7d793          	srai	a5,a5,0x1f
    1670:	00d2b2b3          	sltu	t0,t0,a3
    1674:	40f707b3          	sub	a5,a4,a5
    1678:	405787b3          	sub	a5,a5,t0
    167c:	026787b3          	mul	a5,a5,t1
    1680:	03d682b3          	mul	t0,a3,t4
    1684:	0266b733          	mulhu	a4,a3,t1
    1688:	005787b3          	add	a5,a5,t0
    168c:	026686b3          	mul	a3,a3,t1
    1690:	00e787b3          	add	a5,a5,a4
    1694:	01f7d713          	srli	a4,a5,0x1f
    1698:	00d706b3          	add	a3,a4,a3
    169c:	00e6b733          	sltu	a4,a3,a4
    16a0:	00f70733          	add	a4,a4,a5
    16a4:	01f71293          	slli	t0,a4,0x1f
    16a8:	0016d693          	srli	a3,a3,0x1
    16ac:	00d2e2b3          	or	t0,t0,a3
    16b0:	40175713          	srai	a4,a4,0x1
    16b4:	00e2e7b3          	or	a5,t0,a4
    16b8:	f60796e3          	bnez	a5,1624 <Number_divide+0x600>
    16bc:	00c00793          	li	a5,12
    16c0:	2d17f663          	bgeu	a5,a7,198c <Number_divide+0x968>
    16c4:	ff5f8613          	addi	a2,t6,-11
    16c8:	0ff67613          	zext.b	a2,a2
    16cc:	00000693          	li	a3,0
    16d0:	00100513          	li	a0,1
    16d4:	00000593          	li	a1,0
    16d8:	00251793          	slli	a5,a0,0x2
    16dc:	01e55813          	srli	a6,a0,0x1e
    16e0:	00259713          	slli	a4,a1,0x2
    16e4:	00a78533          	add	a0,a5,a0
    16e8:	00e86733          	or	a4,a6,a4
    16ec:	00b70733          	add	a4,a4,a1
    16f0:	00f537b3          	sltu	a5,a0,a5
    16f4:	00e787b3          	add	a5,a5,a4
    16f8:	00168693          	addi	a3,a3,1
    16fc:	01f55593          	srli	a1,a0,0x1f
    1700:	00179793          	slli	a5,a5,0x1
    1704:	0ff6f693          	zext.b	a3,a3
    1708:	00151513          	slli	a0,a0,0x1
    170c:	00f5e5b3          	or	a1,a1,a5
    1710:	fcc6e4e3          	bltu	a3,a2,16d8 <Number_divide+0x6b4>
    1714:	6f0020ef          	jal	ra,3e04 <__floatdidf>
    1718:	00050613          	mv	a2,a0
    171c:	00058693          	mv	a3,a1
    1720:	00098513          	mv	a0,s3
    1724:	00090593          	mv	a1,s2
    1728:	740010ef          	jal	ra,2e68 <__divdf3>
    172c:	5e4020ef          	jal	ra,3d10 <__fixdfdi>
    1730:	00058613          	mv	a2,a1
    1734:	00050813          	mv	a6,a0
    1738:	00000413          	li	s0,0
    173c:	00c867b3          	or	a5,a6,a2
    1740:	00080713          	mv	a4,a6
    1744:	00060593          	mv	a1,a2
    1748:	40078c63          	beqz	a5,1b60 <Number_divide+0xb3c>
    174c:	ccccde37          	lui	t3,0xccccd
    1750:	10000337          	lui	t1,0x10000
    1754:	ccde0893          	addi	a7,t3,-819 # cccccccd <__freertos_irq_stack_top+0xaccbcccd>
    1758:	00000693          	li	a3,0
    175c:	fff30313          	addi	t1,t1,-1 # fffffff <__stack_size+0xfff7fff>
    1760:	00500e93          	li	t4,5
    1764:	ccce0e13          	addi	t3,t3,-820
    1768:	00461793          	slli	a5,a2,0x4
    176c:	01c85513          	srli	a0,a6,0x1c
    1770:	00a7e533          	or	a0,a5,a0
    1774:	00657533          	and	a0,a0,t1
    1778:	006877b3          	and	a5,a6,t1
    177c:	41f65f13          	srai	t5,a2,0x1f
    1780:	01865f93          	srli	t6,a2,0x18
    1784:	00a787b3          	add	a5,a5,a0
    1788:	01f787b3          	add	a5,a5,t6
    178c:	003f7513          	andi	a0,t5,3
    1790:	00a787b3          	add	a5,a5,a0
    1794:	03d7f7b3          	remu	a5,a5,t4
    1798:	ffcf7f13          	andi	t5,t5,-4
    179c:	00168693          	addi	a3,a3,1
    17a0:	0ff6f693          	zext.b	a3,a3
    17a4:	01e787b3          	add	a5,a5,t5
    17a8:	40f80533          	sub	a0,a6,a5
    17ac:	41f7d793          	srai	a5,a5,0x1f
    17b0:	00a83833          	sltu	a6,a6,a0
    17b4:	40f607b3          	sub	a5,a2,a5
    17b8:	410787b3          	sub	a5,a5,a6
    17bc:	031787b3          	mul	a5,a5,a7
    17c0:	03c50833          	mul	a6,a0,t3
    17c4:	03153633          	mulhu	a2,a0,a7
    17c8:	010787b3          	add	a5,a5,a6
    17cc:	03150533          	mul	a0,a0,a7
    17d0:	00c787b3          	add	a5,a5,a2
    17d4:	01f7d613          	srli	a2,a5,0x1f
    17d8:	00a60533          	add	a0,a2,a0
    17dc:	00c53633          	sltu	a2,a0,a2
    17e0:	00f60633          	add	a2,a2,a5
    17e4:	01f61813          	slli	a6,a2,0x1f
    17e8:	00155513          	srli	a0,a0,0x1
    17ec:	00a86833          	or	a6,a6,a0
    17f0:	40165613          	srai	a2,a2,0x1
    17f4:	00c867b3          	or	a5,a6,a2
    17f8:	f60798e3          	bnez	a5,1768 <Number_divide+0x744>
    17fc:	ccccd8b7          	lui	a7,0xccccd
    1800:	10000837          	lui	a6,0x10000
    1804:	ccd88513          	addi	a0,a7,-819 # cccccccd <__freertos_irq_stack_top+0xaccbcccd>
    1808:	00c00e13          	li	t3,12
    180c:	fff80813          	addi	a6,a6,-1 # fffffff <__stack_size+0xfff7fff>
    1810:	00500313          	li	t1,5
    1814:	ccc88893          	addi	a7,a7,-820
    1818:	08de7c63          	bgeu	t3,a3,18b0 <Number_divide+0x88c>
    181c:	00459793          	slli	a5,a1,0x4
    1820:	01c75613          	srli	a2,a4,0x1c
    1824:	00c7e633          	or	a2,a5,a2
    1828:	01067633          	and	a2,a2,a6
    182c:	010777b3          	and	a5,a4,a6
    1830:	41f5de93          	srai	t4,a1,0x1f
    1834:	0185df13          	srli	t5,a1,0x18
    1838:	00c787b3          	add	a5,a5,a2
    183c:	01e787b3          	add	a5,a5,t5
    1840:	003ef613          	andi	a2,t4,3
    1844:	00c787b3          	add	a5,a5,a2
    1848:	0267f7b3          	remu	a5,a5,t1
    184c:	ffcefe93          	andi	t4,t4,-4
    1850:	01d787b3          	add	a5,a5,t4
    1854:	40f70633          	sub	a2,a4,a5
    1858:	41f7d793          	srai	a5,a5,0x1f
    185c:	00c73733          	sltu	a4,a4,a2
    1860:	40f587b3          	sub	a5,a1,a5
    1864:	40e787b3          	sub	a5,a5,a4
    1868:	031605b3          	mul	a1,a2,a7
    186c:	02a787b3          	mul	a5,a5,a0
    1870:	02a63733          	mulhu	a4,a2,a0
    1874:	00b787b3          	add	a5,a5,a1
    1878:	02a60633          	mul	a2,a2,a0
    187c:	00e787b3          	add	a5,a5,a4
    1880:	01f7d593          	srli	a1,a5,0x1f
    1884:	00c58633          	add	a2,a1,a2
    1888:	00b635b3          	sltu	a1,a2,a1
    188c:	00f585b3          	add	a1,a1,a5
    1890:	01f59713          	slli	a4,a1,0x1f
    1894:	00165613          	srli	a2,a2,0x1
    1898:	00c76733          	or	a4,a4,a2
    189c:	4015d593          	srai	a1,a1,0x1
    18a0:	f6040ee3          	beqz	s0,181c <Number_divide+0x7f8>
    18a4:	00140413          	addi	s0,s0,1
    18a8:	0ff47413          	zext.b	s0,s0
    18ac:	f6de68e3          	bltu	t3,a3,181c <Number_divide+0x7f8>
    18b0:	00848423          	sb	s0,8(s1)
    18b4:	01c12083          	lw	ra,28(sp)
    18b8:	01812403          	lw	s0,24(sp)
    18bc:	00e4a023          	sw	a4,0(s1)
    18c0:	00b4a223          	sw	a1,4(s1)
    18c4:	01012903          	lw	s2,16(sp)
    18c8:	00c12983          	lw	s3,12(sp)
    18cc:	00812a03          	lw	s4,8(sp)
    18d0:	00412a83          	lw	s5,4(sp)
    18d4:	00048513          	mv	a0,s1
    18d8:	01412483          	lw	s1,20(sp)
    18dc:	02010113          	addi	sp,sp,32
    18e0:	00008067          	ret
    18e4:	ff5f0613          	addi	a2,t5,-11
    18e8:	0ff67613          	zext.b	a2,a2
    18ec:	00000693          	li	a3,0
    18f0:	00100513          	li	a0,1
    18f4:	00000593          	li	a1,0
    18f8:	00251793          	slli	a5,a0,0x2
    18fc:	01e55813          	srli	a6,a0,0x1e
    1900:	00259713          	slli	a4,a1,0x2
    1904:	00a78533          	add	a0,a5,a0
    1908:	00e86733          	or	a4,a6,a4
    190c:	00b70733          	add	a4,a4,a1
    1910:	00f537b3          	sltu	a5,a0,a5
    1914:	00e787b3          	add	a5,a5,a4
    1918:	00168693          	addi	a3,a3,1
    191c:	01f55593          	srli	a1,a0,0x1f
    1920:	00179793          	slli	a5,a5,0x1
    1924:	0ff6f693          	zext.b	a3,a3
    1928:	00151513          	slli	a0,a0,0x1
    192c:	00f5e5b3          	or	a1,a1,a5
    1930:	fcc6e4e3          	bltu	a3,a2,18f8 <Number_divide+0x8d4>
    1934:	de1ff06f          	j	1714 <Number_divide+0x6f0>
    1938:	ff5f0613          	addi	a2,t5,-11
    193c:	0ff67613          	zext.b	a2,a2
    1940:	00000693          	li	a3,0
    1944:	00100513          	li	a0,1
    1948:	00000593          	li	a1,0
    194c:	00251793          	slli	a5,a0,0x2
    1950:	01e55813          	srli	a6,a0,0x1e
    1954:	00259713          	slli	a4,a1,0x2
    1958:	00a78533          	add	a0,a5,a0
    195c:	00e86733          	or	a4,a6,a4
    1960:	00b70733          	add	a4,a4,a1
    1964:	00f537b3          	sltu	a5,a0,a5
    1968:	00e787b3          	add	a5,a5,a4
    196c:	00168693          	addi	a3,a3,1
    1970:	01f55593          	srli	a1,a0,0x1f
    1974:	00179793          	slli	a5,a5,0x1
    1978:	0ff6f693          	zext.b	a3,a3
    197c:	00151513          	slli	a0,a0,0x1
    1980:	00f5e5b3          	or	a1,a1,a5
    1984:	fcc6e4e3          	bltu	a3,a2,194c <Number_divide+0x928>
    1988:	d8dff06f          	j	1714 <Number_divide+0x6f0>
    198c:	00c00413          	li	s0,12
    1990:	41140433          	sub	s0,s0,a7
    1994:	0ff47413          	zext.b	s0,s0
    1998:	20040e63          	beqz	s0,1bb4 <Number_divide+0xb90>
    199c:	00000693          	li	a3,0
    19a0:	00100513          	li	a0,1
    19a4:	00000593          	li	a1,0
    19a8:	00251793          	slli	a5,a0,0x2
    19ac:	01e55613          	srli	a2,a0,0x1e
    19b0:	00259713          	slli	a4,a1,0x2
    19b4:	00a78533          	add	a0,a5,a0
    19b8:	00e66733          	or	a4,a2,a4
    19bc:	00b70733          	add	a4,a4,a1
    19c0:	00f537b3          	sltu	a5,a0,a5
    19c4:	00e787b3          	add	a5,a5,a4
    19c8:	00168693          	addi	a3,a3,1
    19cc:	01f55593          	srli	a1,a0,0x1f
    19d0:	00179793          	slli	a5,a5,0x1
    19d4:	0ff6f693          	zext.b	a3,a3
    19d8:	00151513          	slli	a0,a0,0x1
    19dc:	00f5e5b3          	or	a1,a1,a5
    19e0:	fc8694e3          	bne	a3,s0,19a8 <Number_divide+0x984>
    19e4:	420020ef          	jal	ra,3e04 <__floatdidf>
    19e8:	00098613          	mv	a2,s3
    19ec:	00090693          	mv	a3,s2
    19f0:	3fd010ef          	jal	ra,35ec <__muldf3>
    19f4:	31c020ef          	jal	ra,3d10 <__fixdfdi>
    19f8:	ccccd7b7          	lui	a5,0xccccd
    19fc:	ccd78893          	addi	a7,a5,-819 # cccccccd <__freertos_irq_stack_top+0xaccbcccd>
    1a00:	ccc78713          	addi	a4,a5,-820
    1a04:	02b886b3          	mul	a3,a7,a1
    1a08:	00050813          	mv	a6,a0
    1a0c:	00058613          	mv	a2,a1
    1a10:	200007b7          	lui	a5,0x20000
    1a14:	2407ae03          	lw	t3,576(a5) # 20000240 <__clz_tab+0x104>
    1a18:	2447a303          	lw	t1,580(a5)
    1a1c:	02a705b3          	mul	a1,a4,a0
    1a20:	03088733          	mul	a4,a7,a6
    1a24:	00b686b3          	add	a3,a3,a1
    1a28:	031838b3          	mulhu	a7,a6,a7
    1a2c:	01c705b3          	add	a1,a4,t3
    1a30:	00e5b733          	sltu	a4,a1,a4
    1a34:	01f59513          	slli	a0,a1,0x1f
    1a38:	0015d593          	srli	a1,a1,0x1
    1a3c:	011686b3          	add	a3,a3,a7
    1a40:	006686b3          	add	a3,a3,t1
    1a44:	00d70733          	add	a4,a4,a3
    1a48:	00175693          	srli	a3,a4,0x1
    1a4c:	00d566b3          	or	a3,a0,a3
    1a50:	01f71713          	slli	a4,a4,0x1f
    1a54:	00b76733          	or	a4,a4,a1
    1a58:	ced362e3          	bltu	t1,a3,173c <Number_divide+0x718>
    1a5c:	1c668463          	beq	a3,t1,1c24 <Number_divide+0xc00>
    1a60:	2407a303          	lw	t1,576(a5)
    1a64:	2447a583          	lw	a1,580(a5)
    1a68:	ccccd537          	lui	a0,0xccccd
    1a6c:	100008b7          	lui	a7,0x10000
    1a70:	ccd50693          	addi	a3,a0,-819 # cccccccd <__freertos_irq_stack_top+0xaccbcccd>
    1a74:	fff88893          	addi	a7,a7,-1 # fffffff <__stack_size+0xfff7fff>
    1a78:	00500e13          	li	t3,5
    1a7c:	ccc50513          	addi	a0,a0,-820
    1a80:	00461793          	slli	a5,a2,0x4
    1a84:	01c85713          	srli	a4,a6,0x1c
    1a88:	00e7e733          	or	a4,a5,a4
    1a8c:	01177eb3          	and	t4,a4,a7
    1a90:	011877b3          	and	a5,a6,a7
    1a94:	41f65713          	srai	a4,a2,0x1f
    1a98:	01d787b3          	add	a5,a5,t4
    1a9c:	01865f13          	srli	t5,a2,0x18
    1aa0:	00377f93          	andi	t6,a4,3
    1aa4:	01e787b3          	add	a5,a5,t5
    1aa8:	01f787b3          	add	a5,a5,t6
    1aac:	ffc77713          	andi	a4,a4,-4
    1ab0:	fff40e93          	addi	t4,s0,-1
    1ab4:	c80404e3          	beqz	s0,173c <Number_divide+0x718>
    1ab8:	03c7f7b3          	remu	a5,a5,t3
    1abc:	0ffef413          	zext.b	s0,t4
    1ac0:	00e787b3          	add	a5,a5,a4
    1ac4:	40f80733          	sub	a4,a6,a5
    1ac8:	41f7d793          	srai	a5,a5,0x1f
    1acc:	00e83833          	sltu	a6,a6,a4
    1ad0:	40f607b3          	sub	a5,a2,a5
    1ad4:	410787b3          	sub	a5,a5,a6
    1ad8:	02d787b3          	mul	a5,a5,a3
    1adc:	02a70833          	mul	a6,a4,a0
    1ae0:	02d73633          	mulhu	a2,a4,a3
    1ae4:	010787b3          	add	a5,a5,a6
    1ae8:	02d70733          	mul	a4,a4,a3
    1aec:	00c787b3          	add	a5,a5,a2
    1af0:	01f7d613          	srli	a2,a5,0x1f
    1af4:	00e60733          	add	a4,a2,a4
    1af8:	00c73633          	sltu	a2,a4,a2
    1afc:	00f60633          	add	a2,a2,a5
    1b00:	01f61813          	slli	a6,a2,0x1f
    1b04:	00175713          	srli	a4,a4,0x1
    1b08:	00e86833          	or	a6,a6,a4
    1b0c:	40165613          	srai	a2,a2,0x1
    1b10:	02a80eb3          	mul	t4,a6,a0
    1b14:	02d60733          	mul	a4,a2,a3
    1b18:	02d807b3          	mul	a5,a6,a3
    1b1c:	01d70733          	add	a4,a4,t4
    1b20:	02d83fb3          	mulhu	t6,a6,a3
    1b24:	00678eb3          	add	t4,a5,t1
    1b28:	00feb7b3          	sltu	a5,t4,a5
    1b2c:	01fe9f13          	slli	t5,t4,0x1f
    1b30:	001ede93          	srli	t4,t4,0x1
    1b34:	01f70733          	add	a4,a4,t6
    1b38:	00b70733          	add	a4,a4,a1
    1b3c:	00e787b3          	add	a5,a5,a4
    1b40:	0017d713          	srli	a4,a5,0x1
    1b44:	00ef6733          	or	a4,t5,a4
    1b48:	01f79793          	slli	a5,a5,0x1f
    1b4c:	01d7e7b3          	or	a5,a5,t4
    1b50:	bee5e6e3          	bltu	a1,a4,173c <Number_divide+0x718>
    1b54:	f2b716e3          	bne	a4,a1,1a80 <Number_divide+0xa5c>
    1b58:	f2f374e3          	bgeu	t1,a5,1a80 <Number_divide+0xa5c>
    1b5c:	be1ff06f          	j	173c <Number_divide+0x718>
    1b60:	ccccd8b7          	lui	a7,0xccccd
    1b64:	10000837          	lui	a6,0x10000
    1b68:	ccd88513          	addi	a0,a7,-819 # cccccccd <__freertos_irq_stack_top+0xaccbcccd>
    1b6c:	00000693          	li	a3,0
    1b70:	00c00e13          	li	t3,12
    1b74:	fff80813          	addi	a6,a6,-1 # fffffff <__stack_size+0xfff7fff>
    1b78:	00500313          	li	t1,5
    1b7c:	ccc88893          	addi	a7,a7,-820
    1b80:	c99ff06f          	j	1818 <Number_divide+0x7f4>
    1b84:	00c00413          	li	s0,12
    1b88:	e15ff06f          	j	199c <Number_divide+0x978>
    1b8c:	00000a93          	li	s5,0
    1b90:	00c00893          	li	a7,12
    1b94:	895ff06f          	j	1428 <Number_divide+0x404>
    1b98:	00000a93          	li	s5,0
    1b9c:	00c00893          	li	a7,12
    1ba0:	de0ff06f          	j	1180 <Number_divide+0x15c>
    1ba4:	00c00a93          	li	s5,12
    1ba8:	e3cff06f          	j	11e4 <Number_divide+0x1c0>
    1bac:	00c00a93          	li	s5,12
    1bb0:	8ddff06f          	j	148c <Number_divide+0x468>
    1bb4:	02b306b3          	mul	a3,t1,a1
    1bb8:	200007b7          	lui	a5,0x20000
    1bbc:	2407af83          	lw	t6,576(a5) # 20000240 <__clz_tab+0x104>
    1bc0:	2447af03          	lw	t5,580(a5)
    1bc4:	02ae8eb3          	mul	t4,t4,a0
    1bc8:	02a30733          	mul	a4,t1,a0
    1bcc:	01d686b3          	add	a3,a3,t4
    1bd0:	02653333          	mulhu	t1,a0,t1
    1bd4:	01f708b3          	add	a7,a4,t6
    1bd8:	00e8b733          	sltu	a4,a7,a4
    1bdc:	01f89e13          	slli	t3,a7,0x1f
    1be0:	0018d893          	srli	a7,a7,0x1
    1be4:	006686b3          	add	a3,a3,t1
    1be8:	01e686b3          	add	a3,a3,t5
    1bec:	00d70733          	add	a4,a4,a3
    1bf0:	00175693          	srli	a3,a4,0x1
    1bf4:	00de66b3          	or	a3,t3,a3
    1bf8:	01f71713          	slli	a4,a4,0x1f
    1bfc:	01176733          	or	a4,a4,a7
    1c00:	00df6663          	bltu	t5,a3,1c0c <Number_divide+0xbe8>
    1c04:	e5e69ee3          	bne	a3,t5,1a60 <Number_divide+0xa3c>
    1c08:	e4effce3          	bgeu	t6,a4,1a60 <Number_divide+0xa3c>
    1c0c:	00050713          	mv	a4,a0
    1c10:	b3dff06f          	j	174c <Number_divide+0x728>
    1c14:	e4e37063          	bgeu	t1,a4,1254 <Number_divide+0x230>
    1c18:	b25ff06f          	j	173c <Number_divide+0x718>
    1c1c:	8ee370e3          	bgeu	t1,a4,14fc <Number_divide+0x4d8>
    1c20:	b1dff06f          	j	173c <Number_divide+0x718>
    1c24:	e2ee7ee3          	bgeu	t3,a4,1a60 <Number_divide+0xa3c>
    1c28:	b15ff06f          	j	173c <Number_divide+0x718>

00001c2c <execute_signal>:
    1c2c:	fc010113          	addi	sp,sp,-64
    1c30:	02812c23          	sw	s0,56(sp)
    1c34:	02912a23          	sw	s1,52(sp)
    1c38:	03212823          	sw	s2,48(sp)
    1c3c:	03312623          	sw	s3,44(sp)
    1c40:	02112e23          	sw	ra,60(sp)
    1c44:	00454783          	lbu	a5,4(a0)
    1c48:	00100813          	li	a6,1
    1c4c:	80c1a483          	lw	s1,-2036(gp) # 2000024c <curr_state.2>
    1c50:	00058993          	mv	s3,a1
    1c54:	00068413          	mv	s0,a3
    1c58:	0f078263          	beq	a5,a6,1d3c <execute_signal+0x110>
    1c5c:	00079463          	bnez	a5,1c64 <execute_signal+0x38>
    1c60:	80018823          	sb	zero,-2032(gp) # 20000250 <execute_flag.3>
    1c64:	00200793          	li	a5,2
    1c68:	1af48663          	beq	s1,a5,1e14 <execute_signal+0x1e8>
    1c6c:	00200793          	li	a5,2
    1c70:	0497e263          	bltu	a5,s1,1cb4 <execute_signal+0x88>
    1c74:	14048463          	beqz	s1,1dbc <execute_signal+0x190>
    1c78:	0009a603          	lw	a2,0(s3)
    1c7c:	0049a683          	lw	a3,4(s3)
    1c80:	0089a703          	lw	a4,8(s3)
    1c84:	00c9a783          	lw	a5,12(s3)
    1c88:	00c42023          	sw	a2,0(s0)
    1c8c:	00d42223          	sw	a3,4(s0)
    1c90:	00e42423          	sw	a4,8(s0)
    1c94:	00f42623          	sw	a5,12(s0)
    1c98:	03c12083          	lw	ra,60(sp)
    1c9c:	03812403          	lw	s0,56(sp)
    1ca0:	03412483          	lw	s1,52(sp)
    1ca4:	03012903          	lw	s2,48(sp)
    1ca8:	02c12983          	lw	s3,44(sp)
    1cac:	04010113          	addi	sp,sp,64
    1cb0:	00008067          	ret
    1cb4:	00300793          	li	a5,3
    1cb8:	fef490e3          	bne	s1,a5,1c98 <execute_signal+0x6c>
    1cbc:	00072783          	lw	a5,0(a4)
    1cc0:	00e00713          	li	a4,14
    1cc4:	1ae78463          	beq	a5,a4,1e6c <execute_signal+0x240>
    1cc8:	04f76e63          	bltu	a4,a5,1d24 <execute_signal+0xf8>
    1ccc:	00c00713          	li	a4,12
    1cd0:	18e78663          	beq	a5,a4,1e5c <execute_signal+0x230>
    1cd4:	00d00713          	li	a4,13
    1cd8:	fce790e3          	bne	a5,a4,1c98 <execute_signal+0x6c>
    1cdc:	00098593          	mv	a1,s3
    1ce0:	01010513          	addi	a0,sp,16
    1ce4:	bb1fe0ef          	jal	ra,894 <Number_minus>
    1ce8:	01412683          	lw	a3,20(sp)
    1cec:	01812703          	lw	a4,24(sp)
    1cf0:	01c12783          	lw	a5,28(sp)
    1cf4:	01012603          	lw	a2,16(sp)
    1cf8:	03c12083          	lw	ra,60(sp)
    1cfc:	00d42223          	sw	a3,4(s0)
    1d00:	00c42023          	sw	a2,0(s0)
    1d04:	00e42423          	sw	a4,8(s0)
    1d08:	00f42623          	sw	a5,12(s0)
    1d0c:	03812403          	lw	s0,56(sp)
    1d10:	03412483          	lw	s1,52(sp)
    1d14:	03012903          	lw	s2,48(sp)
    1d18:	02c12983          	lw	s3,44(sp)
    1d1c:	04010113          	addi	sp,sp,64
    1d20:	00008067          	ret
    1d24:	00f00713          	li	a4,15
    1d28:	f6e798e3          	bne	a5,a4,1c98 <execute_signal+0x6c>
    1d2c:	00098593          	mv	a1,s3
    1d30:	01010513          	addi	a0,sp,16
    1d34:	af0ff0ef          	jal	ra,1024 <Number_divide>
    1d38:	fb1ff06f          	j	1ce8 <execute_signal+0xbc>
    1d3c:	8101c583          	lbu	a1,-2032(gp) # 20000250 <execute_flag.3>
    1d40:	f20592e3          	bnez	a1,1c64 <execute_signal+0x38>
    1d44:	00e12623          	sw	a4,12(sp)
    1d48:	00c12423          	sw	a2,8(sp)
    1d4c:	80f18823          	sb	a5,-2032(gp) # 20000250 <execute_flag.3>
    1d50:	b84fe0ef          	jal	ra,d4 <identify>
    1d54:	00200793          	li	a5,2
    1d58:	00812603          	lw	a2,8(sp)
    1d5c:	00c12703          	lw	a4,12(sp)
    1d60:	7cf48c63          	beq	s1,a5,2538 <execute_signal+0x90c>
    1d64:	0897e463          	bltu	a5,s1,1dec <execute_signal+0x1c0>
    1d68:	580480e3          	beqz	s1,2ae8 <execute_signal+0xebc>
    1d6c:	01000793          	li	a5,16
    1d70:	f0a7e4e3          	bltu	a5,a0,1c78 <execute_signal+0x4c>
    1d74:	200007b7          	lui	a5,0x20000
    1d78:	00078793          	mv	a5,a5
    1d7c:	00251513          	slli	a0,a0,0x2
    1d80:	00f50533          	add	a0,a0,a5
    1d84:	00052783          	lw	a5,0(a0)
    1d88:	00078067          	jr	a5 # 20000000 <_data>
    1d8c:	00000513          	li	a0,0
    1d90:	00000593          	li	a1,0
    1d94:	00060423          	sb	zero,8(a2)
    1d98:	00a62023          	sw	a0,0(a2)
    1d9c:	00b62223          	sw	a1,4(a2)
    1da0:	01200793          	li	a5,18
    1da4:	00f72023          	sw	a5,0(a4)
    1da8:	8001a623          	sw	zero,-2036(gp) # 2000024c <curr_state.2>
    1dac:	800184a3          	sb	zero,-2039(gp) # 20000249 <point_flag.1>
    1db0:	00a9a023          	sw	a0,0(s3)
    1db4:	00b9a223          	sw	a1,4(s3)
    1db8:	00098423          	sb	zero,8(s3)
    1dbc:	00040423          	sb	zero,8(s0)
    1dc0:	00000793          	li	a5,0
    1dc4:	00000813          	li	a6,0
    1dc8:	03c12083          	lw	ra,60(sp)
    1dcc:	00f42023          	sw	a5,0(s0)
    1dd0:	01042223          	sw	a6,4(s0)
    1dd4:	03812403          	lw	s0,56(sp)
    1dd8:	03412483          	lw	s1,52(sp)
    1ddc:	03012903          	lw	s2,48(sp)
    1de0:	02c12983          	lw	s3,44(sp)
    1de4:	04010113          	addi	sp,sp,64
    1de8:	00008067          	ret
    1dec:	00300793          	li	a5,3
    1df0:	eaf494e3          	bne	s1,a5,1c98 <execute_signal+0x6c>
    1df4:	01000793          	li	a5,16
    1df8:	e6a7eae3          	bltu	a5,a0,1c6c <execute_signal+0x40>
    1dfc:	200007b7          	lui	a5,0x20000
    1e00:	04478793          	addi	a5,a5,68 # 20000044 <_data+0x44>
    1e04:	00251513          	slli	a0,a0,0x2
    1e08:	00f50533          	add	a0,a0,a5
    1e0c:	00052783          	lw	a5,0(a0)
    1e10:	00078067          	jr	a5
    1e14:	200007b7          	lui	a5,0x20000
    1e18:	2487c783          	lbu	a5,584(a5) # 20000248 <spec_flag.0>
    1e1c:	e4078ee3          	beqz	a5,1c78 <execute_signal+0x4c>
    1e20:	00062583          	lw	a1,0(a2)
    1e24:	00462683          	lw	a3,4(a2)
    1e28:	00862703          	lw	a4,8(a2)
    1e2c:	00c62783          	lw	a5,12(a2)
    1e30:	03c12083          	lw	ra,60(sp)
    1e34:	00b42023          	sw	a1,0(s0)
    1e38:	00d42223          	sw	a3,4(s0)
    1e3c:	00e42423          	sw	a4,8(s0)
    1e40:	00f42623          	sw	a5,12(s0)
    1e44:	03812403          	lw	s0,56(sp)
    1e48:	03412483          	lw	s1,52(sp)
    1e4c:	03012903          	lw	s2,48(sp)
    1e50:	02c12983          	lw	s3,44(sp)
    1e54:	04010113          	addi	sp,sp,64
    1e58:	00008067          	ret
    1e5c:	00098593          	mv	a1,s3
    1e60:	01010513          	addi	a0,sp,16
    1e64:	decfe0ef          	jal	ra,450 <Number_plus>
    1e68:	e81ff06f          	j	1ce8 <execute_signal+0xbc>
    1e6c:	00098593          	mv	a1,s3
    1e70:	01010513          	addi	a0,sp,16
    1e74:	e65fe0ef          	jal	ra,cd8 <Number_multiply>
    1e78:	e71ff06f          	j	1ce8 <execute_signal+0xbc>
    1e7c:	00c42783          	lw	a5,12(s0)
    1e80:	00042503          	lw	a0,0(s0)
    1e84:	00442583          	lw	a1,4(s0)
    1e88:	00842683          	lw	a3,8(s0)
    1e8c:	00f9a623          	sw	a5,12(s3)
    1e90:	00a9a023          	sw	a0,0(s3)
    1e94:	00b9a223          	sw	a1,4(s3)
    1e98:	00d9a423          	sw	a3,8(s3)
    1e9c:	00f00793          	li	a5,15
    1ea0:	00f72023          	sw	a5,0(a4)
    1ea4:	00200793          	li	a5,2
    1ea8:	80f1a623          	sw	a5,-2036(gp) # 2000024c <curr_state.2>
    1eac:	200007b7          	lui	a5,0x20000
    1eb0:	24078423          	sb	zero,584(a5) # 20000248 <spec_flag.0>
    1eb4:	800184a3          	sb	zero,-2039(gp) # 20000249 <point_flag.1>
    1eb8:	00000813          	li	a6,0
    1ebc:	00000793          	li	a5,0
    1ec0:	00060423          	sb	zero,8(a2)
    1ec4:	00f62023          	sw	a5,0(a2)
    1ec8:	01062223          	sw	a6,4(a2)
    1ecc:	dadff06f          	j	1c78 <execute_signal+0x4c>
    1ed0:	00c42783          	lw	a5,12(s0)
    1ed4:	00042503          	lw	a0,0(s0)
    1ed8:	00442583          	lw	a1,4(s0)
    1edc:	00842683          	lw	a3,8(s0)
    1ee0:	00f9a623          	sw	a5,12(s3)
    1ee4:	00a9a023          	sw	a0,0(s3)
    1ee8:	00b9a223          	sw	a1,4(s3)
    1eec:	00d9a423          	sw	a3,8(s3)
    1ef0:	00e00793          	li	a5,14
    1ef4:	fadff06f          	j	1ea0 <execute_signal+0x274>
    1ef8:	00c42783          	lw	a5,12(s0)
    1efc:	00042503          	lw	a0,0(s0)
    1f00:	00442583          	lw	a1,4(s0)
    1f04:	00842683          	lw	a3,8(s0)
    1f08:	00f9a623          	sw	a5,12(s3)
    1f0c:	00a9a023          	sw	a0,0(s3)
    1f10:	00b9a223          	sw	a1,4(s3)
    1f14:	00d9a423          	sw	a3,8(s3)
    1f18:	00d00793          	li	a5,13
    1f1c:	f85ff06f          	j	1ea0 <execute_signal+0x274>
    1f20:	00c42783          	lw	a5,12(s0)
    1f24:	00042503          	lw	a0,0(s0)
    1f28:	00442583          	lw	a1,4(s0)
    1f2c:	00842683          	lw	a3,8(s0)
    1f30:	00f9a623          	sw	a5,12(s3)
    1f34:	00a9a023          	sw	a0,0(s3)
    1f38:	00b9a223          	sw	a1,4(s3)
    1f3c:	00d9a423          	sw	a3,8(s3)
    1f40:	00c00793          	li	a5,12
    1f44:	f5dff06f          	j	1ea0 <execute_signal+0x274>
    1f48:	00042703          	lw	a4,0(s0)
    1f4c:	00442783          	lw	a5,4(s0)
    1f50:	00100693          	li	a3,1
    1f54:	00e03633          	snez	a2,a4
    1f58:	40f007b3          	neg	a5,a5
    1f5c:	40c787b3          	sub	a5,a5,a2
    1f60:	40e00733          	neg	a4,a4
    1f64:	00e9a023          	sw	a4,0(s3)
    1f68:	00f9a223          	sw	a5,4(s3)
    1f6c:	00844783          	lbu	a5,8(s0)
    1f70:	80d1a623          	sw	a3,-2036(gp) # 2000024c <curr_state.2>
    1f74:	4c078ce3          	beqz	a5,2c4c <execute_signal+0x1020>
    1f78:	00f98423          	sb	a5,8(s3)
    1f7c:	80d184a3          	sb	a3,-2039(gp) # 20000249 <point_flag.1>
    1f80:	cf9ff06f          	j	1c78 <execute_signal+0x4c>
    1f84:	00844783          	lbu	a5,8(s0)
    1f88:	d2079ae3          	bnez	a5,1cbc <execute_signal+0x90>
    1f8c:	00042603          	lw	a2,0(s0)
    1f90:	00442683          	lw	a3,4(s0)
    1f94:	00100793          	li	a5,1
    1f98:	80f1a623          	sw	a5,-2036(gp) # 2000024c <curr_state.2>
    1f9c:	00c9a023          	sw	a2,0(s3)
    1fa0:	00d9a223          	sw	a3,4(s3)
    1fa4:	00098423          	sb	zero,8(s3)
    1fa8:	80f184a3          	sb	a5,-2039(gp) # 20000249 <point_flag.1>
    1fac:	ccdff06f          	j	1c78 <execute_signal+0x4c>
    1fb0:	00042703          	lw	a4,0(s0)
    1fb4:	00442603          	lw	a2,4(s0)
    1fb8:	00100593          	li	a1,1
    1fbc:	00271793          	slli	a5,a4,0x2
    1fc0:	01e75513          	srli	a0,a4,0x1e
    1fc4:	00261693          	slli	a3,a2,0x2
    1fc8:	00e78733          	add	a4,a5,a4
    1fcc:	00d566b3          	or	a3,a0,a3
    1fd0:	00c68633          	add	a2,a3,a2
    1fd4:	00f737b3          	sltu	a5,a4,a5
    1fd8:	00171693          	slli	a3,a4,0x1
    1fdc:	00c787b3          	add	a5,a5,a2
    1fe0:	00968613          	addi	a2,a3,9
    1fe4:	01f75713          	srli	a4,a4,0x1f
    1fe8:	00179793          	slli	a5,a5,0x1
    1fec:	00f767b3          	or	a5,a4,a5
    1ff0:	00d636b3          	sltu	a3,a2,a3
    1ff4:	00f687b3          	add	a5,a3,a5
    1ff8:	00c9a023          	sw	a2,0(s3)
    1ffc:	00f9a223          	sw	a5,4(s3)
    2000:	00844783          	lbu	a5,8(s0)
    2004:	80b1a623          	sw	a1,-2036(gp) # 2000024c <curr_state.2>
    2008:	440782e3          	beqz	a5,2c4c <execute_signal+0x1020>
    200c:	00178793          	addi	a5,a5,1
    2010:	00f98423          	sb	a5,8(s3)
    2014:	80b184a3          	sb	a1,-2039(gp) # 20000249 <point_flag.1>
    2018:	c61ff06f          	j	1c78 <execute_signal+0x4c>
    201c:	00042703          	lw	a4,0(s0)
    2020:	00442603          	lw	a2,4(s0)
    2024:	00100593          	li	a1,1
    2028:	00271793          	slli	a5,a4,0x2
    202c:	01e75513          	srli	a0,a4,0x1e
    2030:	00261693          	slli	a3,a2,0x2
    2034:	00e78733          	add	a4,a5,a4
    2038:	00d566b3          	or	a3,a0,a3
    203c:	00c68633          	add	a2,a3,a2
    2040:	00f737b3          	sltu	a5,a4,a5
    2044:	00171693          	slli	a3,a4,0x1
    2048:	00c787b3          	add	a5,a5,a2
    204c:	00868613          	addi	a2,a3,8
    2050:	f95ff06f          	j	1fe4 <execute_signal+0x3b8>
    2054:	00042703          	lw	a4,0(s0)
    2058:	00442603          	lw	a2,4(s0)
    205c:	00100593          	li	a1,1
    2060:	00271793          	slli	a5,a4,0x2
    2064:	01e75513          	srli	a0,a4,0x1e
    2068:	00261693          	slli	a3,a2,0x2
    206c:	00e78733          	add	a4,a5,a4
    2070:	00d566b3          	or	a3,a0,a3
    2074:	00c68633          	add	a2,a3,a2
    2078:	00f737b3          	sltu	a5,a4,a5
    207c:	00171693          	slli	a3,a4,0x1
    2080:	00c787b3          	add	a5,a5,a2
    2084:	00768613          	addi	a2,a3,7
    2088:	f5dff06f          	j	1fe4 <execute_signal+0x3b8>
    208c:	00042703          	lw	a4,0(s0)
    2090:	00442603          	lw	a2,4(s0)
    2094:	00100593          	li	a1,1
    2098:	00271793          	slli	a5,a4,0x2
    209c:	01e75513          	srli	a0,a4,0x1e
    20a0:	00261693          	slli	a3,a2,0x2
    20a4:	00e78733          	add	a4,a5,a4
    20a8:	00d566b3          	or	a3,a0,a3
    20ac:	00c68633          	add	a2,a3,a2
    20b0:	00f737b3          	sltu	a5,a4,a5
    20b4:	00171693          	slli	a3,a4,0x1
    20b8:	00c787b3          	add	a5,a5,a2
    20bc:	00668613          	addi	a2,a3,6
    20c0:	f25ff06f          	j	1fe4 <execute_signal+0x3b8>
    20c4:	00042703          	lw	a4,0(s0)
    20c8:	00442603          	lw	a2,4(s0)
    20cc:	00100593          	li	a1,1
    20d0:	00271793          	slli	a5,a4,0x2
    20d4:	01e75513          	srli	a0,a4,0x1e
    20d8:	00261693          	slli	a3,a2,0x2
    20dc:	00e78733          	add	a4,a5,a4
    20e0:	00d566b3          	or	a3,a0,a3
    20e4:	00c68633          	add	a2,a3,a2
    20e8:	00f737b3          	sltu	a5,a4,a5
    20ec:	00171693          	slli	a3,a4,0x1
    20f0:	00c787b3          	add	a5,a5,a2
    20f4:	00568613          	addi	a2,a3,5
    20f8:	eedff06f          	j	1fe4 <execute_signal+0x3b8>
    20fc:	00042703          	lw	a4,0(s0)
    2100:	00442603          	lw	a2,4(s0)
    2104:	00100593          	li	a1,1
    2108:	00271793          	slli	a5,a4,0x2
    210c:	01e75513          	srli	a0,a4,0x1e
    2110:	00261693          	slli	a3,a2,0x2
    2114:	00e78733          	add	a4,a5,a4
    2118:	00d566b3          	or	a3,a0,a3
    211c:	00c68633          	add	a2,a3,a2
    2120:	00f737b3          	sltu	a5,a4,a5
    2124:	00171693          	slli	a3,a4,0x1
    2128:	00c787b3          	add	a5,a5,a2
    212c:	00468613          	addi	a2,a3,4
    2130:	eb5ff06f          	j	1fe4 <execute_signal+0x3b8>
    2134:	00042703          	lw	a4,0(s0)
    2138:	00442603          	lw	a2,4(s0)
    213c:	00100593          	li	a1,1
    2140:	00271793          	slli	a5,a4,0x2
    2144:	01e75513          	srli	a0,a4,0x1e
    2148:	00261693          	slli	a3,a2,0x2
    214c:	00e78733          	add	a4,a5,a4
    2150:	00d566b3          	or	a3,a0,a3
    2154:	00c68633          	add	a2,a3,a2
    2158:	00f737b3          	sltu	a5,a4,a5
    215c:	00171693          	slli	a3,a4,0x1
    2160:	00c787b3          	add	a5,a5,a2
    2164:	00368613          	addi	a2,a3,3
    2168:	e7dff06f          	j	1fe4 <execute_signal+0x3b8>
    216c:	00042703          	lw	a4,0(s0)
    2170:	00442603          	lw	a2,4(s0)
    2174:	00100593          	li	a1,1
    2178:	00271793          	slli	a5,a4,0x2
    217c:	01e75513          	srli	a0,a4,0x1e
    2180:	00261693          	slli	a3,a2,0x2
    2184:	00e78733          	add	a4,a5,a4
    2188:	00d566b3          	or	a3,a0,a3
    218c:	00c68633          	add	a2,a3,a2
    2190:	00f737b3          	sltu	a5,a4,a5
    2194:	00171693          	slli	a3,a4,0x1
    2198:	00c787b3          	add	a5,a5,a2
    219c:	00268613          	addi	a2,a3,2
    21a0:	e45ff06f          	j	1fe4 <execute_signal+0x3b8>
    21a4:	00042703          	lw	a4,0(s0)
    21a8:	00442603          	lw	a2,4(s0)
    21ac:	00100593          	li	a1,1
    21b0:	00271793          	slli	a5,a4,0x2
    21b4:	01e75513          	srli	a0,a4,0x1e
    21b8:	00261693          	slli	a3,a2,0x2
    21bc:	00e78733          	add	a4,a5,a4
    21c0:	00d566b3          	or	a3,a0,a3
    21c4:	00c68633          	add	a2,a3,a2
    21c8:	00f737b3          	sltu	a5,a4,a5
    21cc:	00171693          	slli	a3,a4,0x1
    21d0:	00c787b3          	add	a5,a5,a2
    21d4:	00168613          	addi	a2,a3,1
    21d8:	e0dff06f          	j	1fe4 <execute_signal+0x3b8>
    21dc:	00042703          	lw	a4,0(s0)
    21e0:	00442583          	lw	a1,4(s0)
    21e4:	00100613          	li	a2,1
    21e8:	00271793          	slli	a5,a4,0x2
    21ec:	01e75513          	srli	a0,a4,0x1e
    21f0:	00259693          	slli	a3,a1,0x2
    21f4:	00e78733          	add	a4,a5,a4
    21f8:	00d566b3          	or	a3,a0,a3
    21fc:	00f737b3          	sltu	a5,a4,a5
    2200:	00b686b3          	add	a3,a3,a1
    2204:	00d787b3          	add	a5,a5,a3
    2208:	00179793          	slli	a5,a5,0x1
    220c:	01f75693          	srli	a3,a4,0x1f
    2210:	00f6e7b3          	or	a5,a3,a5
    2214:	00171713          	slli	a4,a4,0x1
    2218:	00e9a023          	sw	a4,0(s3)
    221c:	00f9a223          	sw	a5,4(s3)
    2220:	00844783          	lbu	a5,8(s0)
    2224:	80c1a623          	sw	a2,-2036(gp) # 2000024c <curr_state.2>
    2228:	220782e3          	beqz	a5,2c4c <execute_signal+0x1020>
    222c:	00178793          	addi	a5,a5,1
    2230:	00f98423          	sb	a5,8(s3)
    2234:	80c184a3          	sb	a2,-2039(gp) # 20000249 <point_flag.1>
    2238:	a41ff06f          	j	1c78 <execute_signal+0x4c>
    223c:	00f00793          	li	a5,15
    2240:	00f72023          	sw	a5,0(a4)
    2244:	00200793          	li	a5,2
    2248:	80f1a623          	sw	a5,-2036(gp) # 2000024c <curr_state.2>
    224c:	800184a3          	sb	zero,-2039(gp) # 20000249 <point_flag.1>
    2250:	00000813          	li	a6,0
    2254:	00000793          	li	a5,0
    2258:	00f62023          	sw	a5,0(a2)
    225c:	01062223          	sw	a6,4(a2)
    2260:	00060423          	sb	zero,8(a2)
    2264:	200007b7          	lui	a5,0x20000
    2268:	24078423          	sb	zero,584(a5) # 20000248 <spec_flag.0>
    226c:	a0dff06f          	j	1c78 <execute_signal+0x4c>
    2270:	00e00793          	li	a5,14
    2274:	fcdff06f          	j	2240 <execute_signal+0x614>
    2278:	00d00793          	li	a5,13
    227c:	fc5ff06f          	j	2240 <execute_signal+0x614>
    2280:	00c00793          	li	a5,12
    2284:	fbdff06f          	j	2240 <execute_signal+0x614>
    2288:	0009a703          	lw	a4,0(s3)
    228c:	0049a783          	lw	a5,4(s3)
    2290:	00e036b3          	snez	a3,a4
    2294:	40f007b3          	neg	a5,a5
    2298:	40e00733          	neg	a4,a4
    229c:	40d787b3          	sub	a5,a5,a3
    22a0:	00e9a023          	sw	a4,0(s3)
    22a4:	00f9a223          	sw	a5,4(s3)
    22a8:	9d1ff06f          	j	1c78 <execute_signal+0x4c>
    22ac:	8091c703          	lbu	a4,-2039(gp) # 20000249 <point_flag.1>
    22b0:	9c0714e3          	bnez	a4,1c78 <execute_signal+0x4c>
    22b4:	00100713          	li	a4,1
    22b8:	80e184a3          	sb	a4,-2039(gp) # 20000249 <point_flag.1>
    22bc:	9bdff06f          	j	1c78 <execute_signal+0x4c>
    22c0:	0009a703          	lw	a4,0(s3)
    22c4:	0049a603          	lw	a2,4(s3)
    22c8:	00271793          	slli	a5,a4,0x2
    22cc:	01e75593          	srli	a1,a4,0x1e
    22d0:	00261693          	slli	a3,a2,0x2
    22d4:	00e78733          	add	a4,a5,a4
    22d8:	00d5e6b3          	or	a3,a1,a3
    22dc:	00c68633          	add	a2,a3,a2
    22e0:	00f737b3          	sltu	a5,a4,a5
    22e4:	00171693          	slli	a3,a4,0x1
    22e8:	00c787b3          	add	a5,a5,a2
    22ec:	00968613          	addi	a2,a3,9
    22f0:	01f75713          	srli	a4,a4,0x1f
    22f4:	00179793          	slli	a5,a5,0x1
    22f8:	00f767b3          	or	a5,a4,a5
    22fc:	00d636b3          	sltu	a3,a2,a3
    2300:	8091c703          	lbu	a4,-2039(gp) # 20000249 <point_flag.1>
    2304:	00f687b3          	add	a5,a3,a5
    2308:	00c9a023          	sw	a2,0(s3)
    230c:	00f9a223          	sw	a5,4(s3)
    2310:	960704e3          	beqz	a4,1c78 <execute_signal+0x4c>
    2314:	0089c783          	lbu	a5,8(s3)
    2318:	00178793          	addi	a5,a5,1
    231c:	00f98423          	sb	a5,8(s3)
    2320:	959ff06f          	j	1c78 <execute_signal+0x4c>
    2324:	0009a703          	lw	a4,0(s3)
    2328:	0049a603          	lw	a2,4(s3)
    232c:	00271793          	slli	a5,a4,0x2
    2330:	01e75593          	srli	a1,a4,0x1e
    2334:	00261693          	slli	a3,a2,0x2
    2338:	00e78733          	add	a4,a5,a4
    233c:	00d5e6b3          	or	a3,a1,a3
    2340:	00c68633          	add	a2,a3,a2
    2344:	00f737b3          	sltu	a5,a4,a5
    2348:	00171693          	slli	a3,a4,0x1
    234c:	00c787b3          	add	a5,a5,a2
    2350:	00868613          	addi	a2,a3,8
    2354:	f9dff06f          	j	22f0 <execute_signal+0x6c4>
    2358:	0009a703          	lw	a4,0(s3)
    235c:	0049a603          	lw	a2,4(s3)
    2360:	00271793          	slli	a5,a4,0x2
    2364:	01e75593          	srli	a1,a4,0x1e
    2368:	00261693          	slli	a3,a2,0x2
    236c:	00e78733          	add	a4,a5,a4
    2370:	00d5e6b3          	or	a3,a1,a3
    2374:	00c68633          	add	a2,a3,a2
    2378:	00f737b3          	sltu	a5,a4,a5
    237c:	00171693          	slli	a3,a4,0x1
    2380:	00c787b3          	add	a5,a5,a2
    2384:	00768613          	addi	a2,a3,7
    2388:	f69ff06f          	j	22f0 <execute_signal+0x6c4>
    238c:	0009a703          	lw	a4,0(s3)
    2390:	0049a603          	lw	a2,4(s3)
    2394:	00271793          	slli	a5,a4,0x2
    2398:	01e75593          	srli	a1,a4,0x1e
    239c:	00261693          	slli	a3,a2,0x2
    23a0:	00e78733          	add	a4,a5,a4
    23a4:	00d5e6b3          	or	a3,a1,a3
    23a8:	00c68633          	add	a2,a3,a2
    23ac:	00f737b3          	sltu	a5,a4,a5
    23b0:	00171693          	slli	a3,a4,0x1
    23b4:	00c787b3          	add	a5,a5,a2
    23b8:	00668613          	addi	a2,a3,6
    23bc:	f35ff06f          	j	22f0 <execute_signal+0x6c4>
    23c0:	0009a703          	lw	a4,0(s3)
    23c4:	0049a603          	lw	a2,4(s3)
    23c8:	00271793          	slli	a5,a4,0x2
    23cc:	01e75593          	srli	a1,a4,0x1e
    23d0:	00261693          	slli	a3,a2,0x2
    23d4:	00e78733          	add	a4,a5,a4
    23d8:	00d5e6b3          	or	a3,a1,a3
    23dc:	00c68633          	add	a2,a3,a2
    23e0:	00f737b3          	sltu	a5,a4,a5
    23e4:	00171693          	slli	a3,a4,0x1
    23e8:	00c787b3          	add	a5,a5,a2
    23ec:	00568613          	addi	a2,a3,5
    23f0:	f01ff06f          	j	22f0 <execute_signal+0x6c4>
    23f4:	0009a703          	lw	a4,0(s3)
    23f8:	0049a603          	lw	a2,4(s3)
    23fc:	00271793          	slli	a5,a4,0x2
    2400:	01e75593          	srli	a1,a4,0x1e
    2404:	00261693          	slli	a3,a2,0x2
    2408:	00e78733          	add	a4,a5,a4
    240c:	00d5e6b3          	or	a3,a1,a3
    2410:	00c68633          	add	a2,a3,a2
    2414:	00f737b3          	sltu	a5,a4,a5
    2418:	00171693          	slli	a3,a4,0x1
    241c:	00c787b3          	add	a5,a5,a2
    2420:	00468613          	addi	a2,a3,4
    2424:	ecdff06f          	j	22f0 <execute_signal+0x6c4>
    2428:	0009a703          	lw	a4,0(s3)
    242c:	0049a603          	lw	a2,4(s3)
    2430:	00271793          	slli	a5,a4,0x2
    2434:	01e75593          	srli	a1,a4,0x1e
    2438:	00261693          	slli	a3,a2,0x2
    243c:	00e78733          	add	a4,a5,a4
    2440:	00d5e6b3          	or	a3,a1,a3
    2444:	00c68633          	add	a2,a3,a2
    2448:	00f737b3          	sltu	a5,a4,a5
    244c:	00171693          	slli	a3,a4,0x1
    2450:	00c787b3          	add	a5,a5,a2
    2454:	00368613          	addi	a2,a3,3
    2458:	e99ff06f          	j	22f0 <execute_signal+0x6c4>
    245c:	0009a703          	lw	a4,0(s3)
    2460:	0049a603          	lw	a2,4(s3)
    2464:	00271793          	slli	a5,a4,0x2
    2468:	01e75593          	srli	a1,a4,0x1e
    246c:	00261693          	slli	a3,a2,0x2
    2470:	00e78733          	add	a4,a5,a4
    2474:	00d5e6b3          	or	a3,a1,a3
    2478:	00c68633          	add	a2,a3,a2
    247c:	00f737b3          	sltu	a5,a4,a5
    2480:	00171693          	slli	a3,a4,0x1
    2484:	00c787b3          	add	a5,a5,a2
    2488:	00268613          	addi	a2,a3,2
    248c:	e65ff06f          	j	22f0 <execute_signal+0x6c4>
    2490:	0009a703          	lw	a4,0(s3)
    2494:	0049a603          	lw	a2,4(s3)
    2498:	00271793          	slli	a5,a4,0x2
    249c:	01e75593          	srli	a1,a4,0x1e
    24a0:	00261693          	slli	a3,a2,0x2
    24a4:	00e78733          	add	a4,a5,a4
    24a8:	00d5e6b3          	or	a3,a1,a3
    24ac:	00c68633          	add	a2,a3,a2
    24b0:	00f737b3          	sltu	a5,a4,a5
    24b4:	00171693          	slli	a3,a4,0x1
    24b8:	00c787b3          	add	a5,a5,a2
    24bc:	00168613          	addi	a2,a3,1
    24c0:	e31ff06f          	j	22f0 <execute_signal+0x6c4>
    24c4:	0009a703          	lw	a4,0(s3)
    24c8:	0049a603          	lw	a2,4(s3)
    24cc:	00271793          	slli	a5,a4,0x2
    24d0:	01e75593          	srli	a1,a4,0x1e
    24d4:	00261693          	slli	a3,a2,0x2
    24d8:	00e78733          	add	a4,a5,a4
    24dc:	00d5e6b3          	or	a3,a1,a3
    24e0:	00c686b3          	add	a3,a3,a2
    24e4:	00f737b3          	sltu	a5,a4,a5
    24e8:	00d787b3          	add	a5,a5,a3
    24ec:	01f75613          	srli	a2,a4,0x1f
    24f0:	00179793          	slli	a5,a5,0x1
    24f4:	8091c683          	lbu	a3,-2039(gp) # 20000249 <point_flag.1>
    24f8:	00f667b3          	or	a5,a2,a5
    24fc:	00171713          	slli	a4,a4,0x1
    2500:	00e9a023          	sw	a4,0(s3)
    2504:	00f9a223          	sw	a5,4(s3)
    2508:	f6068863          	beqz	a3,1c78 <execute_signal+0x4c>
    250c:	e09ff06f          	j	2314 <execute_signal+0x6e8>
    2510:	01200793          	li	a5,18
    2514:	00f72023          	sw	a5,0(a4)
    2518:	00000793          	li	a5,0
    251c:	00000813          	li	a6,0
    2520:	00f9a023          	sw	a5,0(s3)
    2524:	8001a623          	sw	zero,-2036(gp) # 2000024c <curr_state.2>
    2528:	0109a223          	sw	a6,4(s3)
    252c:	00098423          	sb	zero,8(s3)
    2530:	800184a3          	sb	zero,-2039(gp) # 20000249 <point_flag.1>
    2534:	889ff06f          	j	1dbc <execute_signal+0x190>
    2538:	01100793          	li	a5,17
    253c:	8ca7ece3          	bltu	a5,a0,1e14 <execute_signal+0x1e8>
    2540:	200007b7          	lui	a5,0x20000
    2544:	08878793          	addi	a5,a5,136 # 20000088 <_data+0x88>
    2548:	00251513          	slli	a0,a0,0x2
    254c:	00f50533          	add	a0,a0,a5
    2550:	00052783          	lw	a5,0(a0)
    2554:	00078067          	jr	a5
    2558:	01200793          	li	a5,18
    255c:	00f72023          	sw	a5,0(a4)
    2560:	00000813          	li	a6,0
    2564:	00000793          	li	a5,0
    2568:	00f9a023          	sw	a5,0(s3)
    256c:	0109a223          	sw	a6,4(s3)
    2570:	00098423          	sb	zero,8(s3)
    2574:	00f62023          	sw	a5,0(a2)
    2578:	8001a623          	sw	zero,-2036(gp) # 2000024c <curr_state.2>
    257c:	01062223          	sw	a6,4(a2)
    2580:	00060423          	sb	zero,8(a2)
    2584:	800184a3          	sb	zero,-2039(gp) # 20000249 <point_flag.1>
    2588:	835ff06f          	j	1dbc <execute_signal+0x190>
    258c:	200004b7          	lui	s1,0x20000
    2590:	2484c783          	lbu	a5,584(s1) # 20000248 <spec_flag.0>
    2594:	76078063          	beqz	a5,2cf4 <execute_signal+0x10c8>
    2598:	00072783          	lw	a5,0(a4)
    259c:	00e00693          	li	a3,14
    25a0:	08d780e3          	beq	a5,a3,2e20 <execute_signal+0x11f4>
    25a4:	70f6e463          	bltu	a3,a5,2cac <execute_signal+0x1080>
    25a8:	00c00693          	li	a3,12
    25ac:	04d78ee3          	beq	a5,a3,2e08 <execute_signal+0x11dc>
    25b0:	00d00693          	li	a3,13
    25b4:	04d79063          	bne	a5,a3,25f4 <execute_signal+0x9c8>
    25b8:	00098593          	mv	a1,s3
    25bc:	01010513          	addi	a0,sp,16
    25c0:	00e12623          	sw	a4,12(sp)
    25c4:	00c12423          	sw	a2,8(sp)
    25c8:	accfe0ef          	jal	ra,894 <Number_minus>
    25cc:	01412583          	lw	a1,20(sp)
    25d0:	01812683          	lw	a3,24(sp)
    25d4:	01c12783          	lw	a5,28(sp)
    25d8:	01012503          	lw	a0,16(sp)
    25dc:	00812603          	lw	a2,8(sp)
    25e0:	00c12703          	lw	a4,12(sp)
    25e4:	00a9a023          	sw	a0,0(s3)
    25e8:	00b9a223          	sw	a1,4(s3)
    25ec:	00d9a423          	sw	a3,8(s3)
    25f0:	00f9a623          	sw	a5,12(s3)
    25f4:	00000793          	li	a5,0
    25f8:	00f62023          	sw	a5,0(a2)
    25fc:	00000813          	li	a6,0
    2600:	01062223          	sw	a6,4(a2)
    2604:	00060423          	sb	zero,8(a2)
    2608:	800184a3          	sb	zero,-2039(gp) # 20000249 <point_flag.1>
    260c:	00f00793          	li	a5,15
    2610:	24048423          	sb	zero,584(s1)
    2614:	00f72023          	sw	a5,0(a4)
    2618:	e60ff06f          	j	1c78 <execute_signal+0x4c>
    261c:	200004b7          	lui	s1,0x20000
    2620:	2484c783          	lbu	a5,584(s1) # 20000248 <spec_flag.0>
    2624:	62078a63          	beqz	a5,2c58 <execute_signal+0x102c>
    2628:	00072783          	lw	a5,0(a4)
    262c:	00e00693          	li	a3,14
    2630:	02d780e3          	beq	a5,a3,2e50 <execute_signal+0x1224>
    2634:	62f6e863          	bltu	a3,a5,2c64 <execute_signal+0x1038>
    2638:	00c00693          	li	a3,12
    263c:	7ed78e63          	beq	a5,a3,2e38 <execute_signal+0x120c>
    2640:	00d00693          	li	a3,13
    2644:	04d79063          	bne	a5,a3,2684 <execute_signal+0xa58>
    2648:	00098593          	mv	a1,s3
    264c:	01010513          	addi	a0,sp,16
    2650:	00e12623          	sw	a4,12(sp)
    2654:	00c12423          	sw	a2,8(sp)
    2658:	a3cfe0ef          	jal	ra,894 <Number_minus>
    265c:	01412583          	lw	a1,20(sp)
    2660:	01812683          	lw	a3,24(sp)
    2664:	01c12783          	lw	a5,28(sp)
    2668:	01012503          	lw	a0,16(sp)
    266c:	00812603          	lw	a2,8(sp)
    2670:	00c12703          	lw	a4,12(sp)
    2674:	00a9a023          	sw	a0,0(s3)
    2678:	00b9a223          	sw	a1,4(s3)
    267c:	00d9a423          	sw	a3,8(s3)
    2680:	00f9a623          	sw	a5,12(s3)
    2684:	00000793          	li	a5,0
    2688:	00f62023          	sw	a5,0(a2)
    268c:	00000813          	li	a6,0
    2690:	01062223          	sw	a6,4(a2)
    2694:	00060423          	sb	zero,8(a2)
    2698:	800184a3          	sb	zero,-2039(gp) # 20000249 <point_flag.1>
    269c:	00e00793          	li	a5,14
    26a0:	24048423          	sb	zero,584(s1)
    26a4:	00f72023          	sw	a5,0(a4)
    26a8:	dd0ff06f          	j	1c78 <execute_signal+0x4c>
    26ac:	200004b7          	lui	s1,0x20000
    26b0:	2484c783          	lbu	a5,584(s1) # 20000248 <spec_flag.0>
    26b4:	6e078463          	beqz	a5,2d9c <execute_signal+0x1170>
    26b8:	00072783          	lw	a5,0(a4)
    26bc:	00e00693          	li	a3,14
    26c0:	70d78063          	beq	a5,a3,2dc0 <execute_signal+0x1194>
    26c4:	68f6e863          	bltu	a3,a5,2d54 <execute_signal+0x1128>
    26c8:	00c00693          	li	a3,12
    26cc:	6cd78e63          	beq	a5,a3,2da8 <execute_signal+0x117c>
    26d0:	00d00693          	li	a3,13
    26d4:	04d79063          	bne	a5,a3,2714 <execute_signal+0xae8>
    26d8:	00098593          	mv	a1,s3
    26dc:	01010513          	addi	a0,sp,16
    26e0:	00e12623          	sw	a4,12(sp)
    26e4:	00c12423          	sw	a2,8(sp)
    26e8:	9acfe0ef          	jal	ra,894 <Number_minus>
    26ec:	01412583          	lw	a1,20(sp)
    26f0:	01812683          	lw	a3,24(sp)
    26f4:	01c12783          	lw	a5,28(sp)
    26f8:	01012503          	lw	a0,16(sp)
    26fc:	00812603          	lw	a2,8(sp)
    2700:	00c12703          	lw	a4,12(sp)
    2704:	00a9a023          	sw	a0,0(s3)
    2708:	00b9a223          	sw	a1,4(s3)
    270c:	00d9a423          	sw	a3,8(s3)
    2710:	00f9a623          	sw	a5,12(s3)
    2714:	00000793          	li	a5,0
    2718:	00f62023          	sw	a5,0(a2)
    271c:	00000813          	li	a6,0
    2720:	01062223          	sw	a6,4(a2)
    2724:	00060423          	sb	zero,8(a2)
    2728:	800184a3          	sb	zero,-2039(gp) # 20000249 <point_flag.1>
    272c:	00d00793          	li	a5,13
    2730:	24048423          	sb	zero,584(s1)
    2734:	00f72023          	sw	a5,0(a4)
    2738:	d40ff06f          	j	1c78 <execute_signal+0x4c>
    273c:	200004b7          	lui	s1,0x20000
    2740:	2484c783          	lbu	a5,584(s1) # 20000248 <spec_flag.0>
    2744:	60078263          	beqz	a5,2d48 <execute_signal+0x111c>
    2748:	00072783          	lw	a5,0(a4)
    274c:	00e00693          	li	a3,14
    2750:	68d78463          	beq	a5,a3,2dd8 <execute_signal+0x11ac>
    2754:	5af6e663          	bltu	a3,a5,2d00 <execute_signal+0x10d4>
    2758:	00c00693          	li	a3,12
    275c:	68d78a63          	beq	a5,a3,2df0 <execute_signal+0x11c4>
    2760:	00d00693          	li	a3,13
    2764:	04d79063          	bne	a5,a3,27a4 <execute_signal+0xb78>
    2768:	00098593          	mv	a1,s3
    276c:	01010513          	addi	a0,sp,16
    2770:	00e12623          	sw	a4,12(sp)
    2774:	00c12423          	sw	a2,8(sp)
    2778:	91cfe0ef          	jal	ra,894 <Number_minus>
    277c:	01412583          	lw	a1,20(sp)
    2780:	01812683          	lw	a3,24(sp)
    2784:	01c12783          	lw	a5,28(sp)
    2788:	01012503          	lw	a0,16(sp)
    278c:	00812603          	lw	a2,8(sp)
    2790:	00c12703          	lw	a4,12(sp)
    2794:	00a9a023          	sw	a0,0(s3)
    2798:	00b9a223          	sw	a1,4(s3)
    279c:	00d9a423          	sw	a3,8(s3)
    27a0:	00f9a623          	sw	a5,12(s3)
    27a4:	00000793          	li	a5,0
    27a8:	00f62023          	sw	a5,0(a2)
    27ac:	00000813          	li	a6,0
    27b0:	01062223          	sw	a6,4(a2)
    27b4:	00060423          	sb	zero,8(a2)
    27b8:	800184a3          	sb	zero,-2039(gp) # 20000249 <point_flag.1>
    27bc:	00c00793          	li	a5,12
    27c0:	24048423          	sb	zero,584(s1)
    27c4:	00f72023          	sw	a5,0(a4)
    27c8:	cb0ff06f          	j	1c78 <execute_signal+0x4c>
    27cc:	00062683          	lw	a3,0(a2)
    27d0:	00462703          	lw	a4,4(a2)
    27d4:	200007b7          	lui	a5,0x20000
    27d8:	2487c783          	lbu	a5,584(a5) # 20000248 <spec_flag.0>
    27dc:	00e6e5b3          	or	a1,a3,a4
    27e0:	e2058e63          	beqz	a1,1e1c <execute_signal+0x1f0>
    27e4:	00d035b3          	snez	a1,a3
    27e8:	40e00733          	neg	a4,a4
    27ec:	40d006b3          	neg	a3,a3
    27f0:	40b70733          	sub	a4,a4,a1
    27f4:	00d62023          	sw	a3,0(a2)
    27f8:	00e62223          	sw	a4,4(a2)
    27fc:	e20ff06f          	j	1e1c <execute_signal+0x1f0>
    2800:	8091c703          	lbu	a4,-2039(gp) # 20000249 <point_flag.1>
    2804:	00071663          	bnez	a4,2810 <execute_signal+0xbe4>
    2808:	00100713          	li	a4,1
    280c:	80e184a3          	sb	a4,-2039(gp) # 20000249 <point_flag.1>
    2810:	200007b7          	lui	a5,0x20000
    2814:	00100713          	li	a4,1
    2818:	24e78423          	sb	a4,584(a5) # 20000248 <spec_flag.0>
    281c:	e04ff06f          	j	1e20 <execute_signal+0x1f4>
    2820:	00062703          	lw	a4,0(a2)
    2824:	00462583          	lw	a1,4(a2)
    2828:	00271793          	slli	a5,a4,0x2
    282c:	01e75513          	srli	a0,a4,0x1e
    2830:	00259693          	slli	a3,a1,0x2
    2834:	00e78733          	add	a4,a5,a4
    2838:	00d566b3          	or	a3,a0,a3
    283c:	00b685b3          	add	a1,a3,a1
    2840:	00f737b3          	sltu	a5,a4,a5
    2844:	00171693          	slli	a3,a4,0x1
    2848:	00b787b3          	add	a5,a5,a1
    284c:	00968593          	addi	a1,a3,9
    2850:	01f75713          	srli	a4,a4,0x1f
    2854:	00179793          	slli	a5,a5,0x1
    2858:	00f767b3          	or	a5,a4,a5
    285c:	00d5b6b3          	sltu	a3,a1,a3
    2860:	8091c703          	lbu	a4,-2039(gp) # 20000249 <point_flag.1>
    2864:	00f687b3          	add	a5,a3,a5
    2868:	00f62223          	sw	a5,4(a2)
    286c:	00b62023          	sw	a1,0(a2)
    2870:	00100793          	li	a5,1
    2874:	f8f71ee3          	bne	a4,a5,2810 <execute_signal+0xbe4>
    2878:	00864783          	lbu	a5,8(a2)
    287c:	00178793          	addi	a5,a5,1
    2880:	00f60423          	sb	a5,8(a2)
    2884:	f8dff06f          	j	2810 <execute_signal+0xbe4>
    2888:	00062703          	lw	a4,0(a2)
    288c:	00462583          	lw	a1,4(a2)
    2890:	00271793          	slli	a5,a4,0x2
    2894:	01e75513          	srli	a0,a4,0x1e
    2898:	00259693          	slli	a3,a1,0x2
    289c:	00e78733          	add	a4,a5,a4
    28a0:	00d566b3          	or	a3,a0,a3
    28a4:	00b685b3          	add	a1,a3,a1
    28a8:	00f737b3          	sltu	a5,a4,a5
    28ac:	00171693          	slli	a3,a4,0x1
    28b0:	00b787b3          	add	a5,a5,a1
    28b4:	00868593          	addi	a1,a3,8
    28b8:	f99ff06f          	j	2850 <execute_signal+0xc24>
    28bc:	00062703          	lw	a4,0(a2)
    28c0:	00462583          	lw	a1,4(a2)
    28c4:	00271793          	slli	a5,a4,0x2
    28c8:	01e75513          	srli	a0,a4,0x1e
    28cc:	00259693          	slli	a3,a1,0x2
    28d0:	00e78733          	add	a4,a5,a4
    28d4:	00d566b3          	or	a3,a0,a3
    28d8:	00b685b3          	add	a1,a3,a1
    28dc:	00f737b3          	sltu	a5,a4,a5
    28e0:	00171693          	slli	a3,a4,0x1
    28e4:	00b787b3          	add	a5,a5,a1
    28e8:	00768593          	addi	a1,a3,7
    28ec:	f65ff06f          	j	2850 <execute_signal+0xc24>
    28f0:	00062703          	lw	a4,0(a2)
    28f4:	00462583          	lw	a1,4(a2)
    28f8:	00271793          	slli	a5,a4,0x2
    28fc:	01e75513          	srli	a0,a4,0x1e
    2900:	00259693          	slli	a3,a1,0x2
    2904:	00e78733          	add	a4,a5,a4
    2908:	00d566b3          	or	a3,a0,a3
    290c:	00b685b3          	add	a1,a3,a1
    2910:	00f737b3          	sltu	a5,a4,a5
    2914:	00171693          	slli	a3,a4,0x1
    2918:	00b787b3          	add	a5,a5,a1
    291c:	00668593          	addi	a1,a3,6
    2920:	f31ff06f          	j	2850 <execute_signal+0xc24>
    2924:	00062703          	lw	a4,0(a2)
    2928:	00462583          	lw	a1,4(a2)
    292c:	00271793          	slli	a5,a4,0x2
    2930:	01e75513          	srli	a0,a4,0x1e
    2934:	00259693          	slli	a3,a1,0x2
    2938:	00e78733          	add	a4,a5,a4
    293c:	00d566b3          	or	a3,a0,a3
    2940:	00b685b3          	add	a1,a3,a1
    2944:	00f737b3          	sltu	a5,a4,a5
    2948:	00171693          	slli	a3,a4,0x1
    294c:	00b787b3          	add	a5,a5,a1
    2950:	00568593          	addi	a1,a3,5
    2954:	efdff06f          	j	2850 <execute_signal+0xc24>
    2958:	00062703          	lw	a4,0(a2)
    295c:	00462583          	lw	a1,4(a2)
    2960:	00271793          	slli	a5,a4,0x2
    2964:	01e75513          	srli	a0,a4,0x1e
    2968:	00259693          	slli	a3,a1,0x2
    296c:	00e78733          	add	a4,a5,a4
    2970:	00d566b3          	or	a3,a0,a3
    2974:	00b685b3          	add	a1,a3,a1
    2978:	00f737b3          	sltu	a5,a4,a5
    297c:	00171693          	slli	a3,a4,0x1
    2980:	00b787b3          	add	a5,a5,a1
    2984:	00468593          	addi	a1,a3,4
    2988:	ec9ff06f          	j	2850 <execute_signal+0xc24>
    298c:	00062703          	lw	a4,0(a2)
    2990:	00462583          	lw	a1,4(a2)
    2994:	00271793          	slli	a5,a4,0x2
    2998:	01e75513          	srli	a0,a4,0x1e
    299c:	00259693          	slli	a3,a1,0x2
    29a0:	00e78733          	add	a4,a5,a4
    29a4:	00d566b3          	or	a3,a0,a3
    29a8:	00b685b3          	add	a1,a3,a1
    29ac:	00f737b3          	sltu	a5,a4,a5
    29b0:	00171693          	slli	a3,a4,0x1
    29b4:	00b787b3          	add	a5,a5,a1
    29b8:	00368593          	addi	a1,a3,3
    29bc:	e95ff06f          	j	2850 <execute_signal+0xc24>
    29c0:	00062703          	lw	a4,0(a2)
    29c4:	00462583          	lw	a1,4(a2)
    29c8:	00271793          	slli	a5,a4,0x2
    29cc:	01e75513          	srli	a0,a4,0x1e
    29d0:	00259693          	slli	a3,a1,0x2
    29d4:	00e78733          	add	a4,a5,a4
    29d8:	00d566b3          	or	a3,a0,a3
    29dc:	00b685b3          	add	a1,a3,a1
    29e0:	00f737b3          	sltu	a5,a4,a5
    29e4:	00b787b3          	add	a5,a5,a1
    29e8:	00171693          	slli	a3,a4,0x1
    29ec:	00179793          	slli	a5,a5,0x1
    29f0:	01f75713          	srli	a4,a4,0x1f
    29f4:	00268593          	addi	a1,a3,2
    29f8:	00f767b3          	or	a5,a4,a5
    29fc:	00d5b6b3          	sltu	a3,a1,a3
    2a00:	8091c703          	lbu	a4,-2039(gp) # 20000249 <point_flag.1>
    2a04:	00f687b3          	add	a5,a3,a5
    2a08:	00f62223          	sw	a5,4(a2)
    2a0c:	00b62023          	sw	a1,0(a2)
    2a10:	00100793          	li	a5,1
    2a14:	84f718e3          	bne	a4,a5,2264 <execute_signal+0x638>
    2a18:	00864783          	lbu	a5,8(a2)
    2a1c:	00178793          	addi	a5,a5,1
    2a20:	00f60423          	sb	a5,8(a2)
    2a24:	841ff06f          	j	2264 <execute_signal+0x638>
    2a28:	00062703          	lw	a4,0(a2)
    2a2c:	00462583          	lw	a1,4(a2)
    2a30:	01e75513          	srli	a0,a4,0x1e
    2a34:	00271793          	slli	a5,a4,0x2
    2a38:	00259693          	slli	a3,a1,0x2
    2a3c:	00e78733          	add	a4,a5,a4
    2a40:	00d566b3          	or	a3,a0,a3
    2a44:	00b685b3          	add	a1,a3,a1
    2a48:	00f737b3          	sltu	a5,a4,a5
    2a4c:	00b787b3          	add	a5,a5,a1
    2a50:	00171693          	slli	a3,a4,0x1
    2a54:	00179793          	slli	a5,a5,0x1
    2a58:	01f75713          	srli	a4,a4,0x1f
    2a5c:	00168593          	addi	a1,a3,1
    2a60:	00f767b3          	or	a5,a4,a5
    2a64:	8091c503          	lbu	a0,-2039(gp) # 20000249 <point_flag.1>
    2a68:	00d5b6b3          	sltu	a3,a1,a3
    2a6c:	00f687b3          	add	a5,a3,a5
    2a70:	00100713          	li	a4,1
    2a74:	00b62023          	sw	a1,0(a2)
    2a78:	00f62223          	sw	a5,4(a2)
    2a7c:	d8e51ae3          	bne	a0,a4,2810 <execute_signal+0xbe4>
    2a80:	df9ff06f          	j	2878 <execute_signal+0xc4c>
    2a84:	00062703          	lw	a4,0(a2)
    2a88:	00462583          	lw	a1,4(a2)
    2a8c:	00b767b3          	or	a5,a4,a1
    2a90:	d80780e3          	beqz	a5,2810 <execute_signal+0xbe4>
    2a94:	00271793          	slli	a5,a4,0x2
    2a98:	01e75513          	srli	a0,a4,0x1e
    2a9c:	00259693          	slli	a3,a1,0x2
    2aa0:	00e78733          	add	a4,a5,a4
    2aa4:	00d566b3          	or	a3,a0,a3
    2aa8:	00b686b3          	add	a3,a3,a1
    2aac:	00f737b3          	sltu	a5,a4,a5
    2ab0:	00d787b3          	add	a5,a5,a3
    2ab4:	01f75593          	srli	a1,a4,0x1f
    2ab8:	00179793          	slli	a5,a5,0x1
    2abc:	8091c683          	lbu	a3,-2039(gp) # 20000249 <point_flag.1>
    2ac0:	00f5e7b3          	or	a5,a1,a5
    2ac4:	00171713          	slli	a4,a4,0x1
    2ac8:	00f62223          	sw	a5,4(a2)
    2acc:	00e62023          	sw	a4,0(a2)
    2ad0:	00100793          	li	a5,1
    2ad4:	d2f69ee3          	bne	a3,a5,2810 <execute_signal+0xbe4>
    2ad8:	da1ff06f          	j	2878 <execute_signal+0xc4c>
    2adc:	00300793          	li	a5,3
    2ae0:	80f1a623          	sw	a5,-2036(gp) # 2000024c <curr_state.2>
    2ae4:	9d8ff06f          	j	1cbc <execute_signal+0x90>
    2ae8:	00a00793          	li	a5,10
    2aec:	aca7e863          	bltu	a5,a0,1dbc <execute_signal+0x190>
    2af0:	200007b7          	lui	a5,0x20000
    2af4:	0d078793          	addi	a5,a5,208 # 200000d0 <_data+0xd0>
    2af8:	00251513          	slli	a0,a0,0x2
    2afc:	00f50533          	add	a0,a0,a5
    2b00:	00052783          	lw	a5,0(a0)
    2b04:	00078067          	jr	a5
    2b08:	00000713          	li	a4,0
    2b0c:	00100793          	li	a5,1
    2b10:	00000693          	li	a3,0
    2b14:	00e9a223          	sw	a4,4(s3)
    2b18:	80f1a623          	sw	a5,-2036(gp) # 2000024c <curr_state.2>
    2b1c:	00d9a023          	sw	a3,0(s3)
    2b20:	00098423          	sb	zero,8(s3)
    2b24:	80f184a3          	sb	a5,-2039(gp) # 20000249 <point_flag.1>
    2b28:	950ff06f          	j	1c78 <execute_signal+0x4c>
    2b2c:	00100793          	li	a5,1
    2b30:	80f1a623          	sw	a5,-2036(gp) # 2000024c <curr_state.2>
    2b34:	00900713          	li	a4,9
    2b38:	00000793          	li	a5,0
    2b3c:	00e9a023          	sw	a4,0(s3)
    2b40:	00f9a223          	sw	a5,4(s3)
    2b44:	00098423          	sb	zero,8(s3)
    2b48:	930ff06f          	j	1c78 <execute_signal+0x4c>
    2b4c:	00100793          	li	a5,1
    2b50:	80f1a623          	sw	a5,-2036(gp) # 2000024c <curr_state.2>
    2b54:	00800713          	li	a4,8
    2b58:	00000793          	li	a5,0
    2b5c:	00e9a023          	sw	a4,0(s3)
    2b60:	00f9a223          	sw	a5,4(s3)
    2b64:	00098423          	sb	zero,8(s3)
    2b68:	910ff06f          	j	1c78 <execute_signal+0x4c>
    2b6c:	00100793          	li	a5,1
    2b70:	80f1a623          	sw	a5,-2036(gp) # 2000024c <curr_state.2>
    2b74:	00700713          	li	a4,7
    2b78:	00000793          	li	a5,0
    2b7c:	00e9a023          	sw	a4,0(s3)
    2b80:	00f9a223          	sw	a5,4(s3)
    2b84:	00098423          	sb	zero,8(s3)
    2b88:	8f0ff06f          	j	1c78 <execute_signal+0x4c>
    2b8c:	00100793          	li	a5,1
    2b90:	80f1a623          	sw	a5,-2036(gp) # 2000024c <curr_state.2>
    2b94:	00600713          	li	a4,6
    2b98:	00000793          	li	a5,0
    2b9c:	00e9a023          	sw	a4,0(s3)
    2ba0:	00f9a223          	sw	a5,4(s3)
    2ba4:	00098423          	sb	zero,8(s3)
    2ba8:	8d0ff06f          	j	1c78 <execute_signal+0x4c>
    2bac:	00100793          	li	a5,1
    2bb0:	80f1a623          	sw	a5,-2036(gp) # 2000024c <curr_state.2>
    2bb4:	00500713          	li	a4,5
    2bb8:	00000793          	li	a5,0
    2bbc:	00e9a023          	sw	a4,0(s3)
    2bc0:	00f9a223          	sw	a5,4(s3)
    2bc4:	00098423          	sb	zero,8(s3)
    2bc8:	8b0ff06f          	j	1c78 <execute_signal+0x4c>
    2bcc:	00100793          	li	a5,1
    2bd0:	80f1a623          	sw	a5,-2036(gp) # 2000024c <curr_state.2>
    2bd4:	00400713          	li	a4,4
    2bd8:	00000793          	li	a5,0
    2bdc:	00e9a023          	sw	a4,0(s3)
    2be0:	00f9a223          	sw	a5,4(s3)
    2be4:	00098423          	sb	zero,8(s3)
    2be8:	890ff06f          	j	1c78 <execute_signal+0x4c>
    2bec:	00100793          	li	a5,1
    2bf0:	80f1a623          	sw	a5,-2036(gp) # 2000024c <curr_state.2>
    2bf4:	00300713          	li	a4,3
    2bf8:	00000793          	li	a5,0
    2bfc:	00e9a023          	sw	a4,0(s3)
    2c00:	00f9a223          	sw	a5,4(s3)
    2c04:	00098423          	sb	zero,8(s3)
    2c08:	870ff06f          	j	1c78 <execute_signal+0x4c>
    2c0c:	00100793          	li	a5,1
    2c10:	80f1a623          	sw	a5,-2036(gp) # 2000024c <curr_state.2>
    2c14:	00200713          	li	a4,2
    2c18:	00000793          	li	a5,0
    2c1c:	00e9a023          	sw	a4,0(s3)
    2c20:	00f9a223          	sw	a5,4(s3)
    2c24:	00098423          	sb	zero,8(s3)
    2c28:	850ff06f          	j	1c78 <execute_signal+0x4c>
    2c2c:	00100793          	li	a5,1
    2c30:	80f1a623          	sw	a5,-2036(gp) # 2000024c <curr_state.2>
    2c34:	00100713          	li	a4,1
    2c38:	00000793          	li	a5,0
    2c3c:	00e9a023          	sw	a4,0(s3)
    2c40:	00f9a223          	sw	a5,4(s3)
    2c44:	00098423          	sb	zero,8(s3)
    2c48:	830ff06f          	j	1c78 <execute_signal+0x4c>
    2c4c:	00098423          	sb	zero,8(s3)
    2c50:	800184a3          	sb	zero,-2039(gp) # 20000249 <point_flag.1>
    2c54:	824ff06f          	j	1c78 <execute_signal+0x4c>
    2c58:	00e00793          	li	a5,14
    2c5c:	00f72023          	sw	a5,0(a4)
    2c60:	818ff06f          	j	1c78 <execute_signal+0x4c>
    2c64:	00f00693          	li	a3,15
    2c68:	a0d79ee3          	bne	a5,a3,2684 <execute_signal+0xa58>
    2c6c:	00098593          	mv	a1,s3
    2c70:	01010513          	addi	a0,sp,16
    2c74:	00e12623          	sw	a4,12(sp)
    2c78:	00c12423          	sw	a2,8(sp)
    2c7c:	ba8fe0ef          	jal	ra,1024 <Number_divide>
    2c80:	01412583          	lw	a1,20(sp)
    2c84:	01812683          	lw	a3,24(sp)
    2c88:	01c12783          	lw	a5,28(sp)
    2c8c:	01012503          	lw	a0,16(sp)
    2c90:	00c12703          	lw	a4,12(sp)
    2c94:	00812603          	lw	a2,8(sp)
    2c98:	00a9a023          	sw	a0,0(s3)
    2c9c:	00b9a223          	sw	a1,4(s3)
    2ca0:	00d9a423          	sw	a3,8(s3)
    2ca4:	00f9a623          	sw	a5,12(s3)
    2ca8:	9ddff06f          	j	2684 <execute_signal+0xa58>
    2cac:	00f00693          	li	a3,15
    2cb0:	94d792e3          	bne	a5,a3,25f4 <execute_signal+0x9c8>
    2cb4:	00098593          	mv	a1,s3
    2cb8:	01010513          	addi	a0,sp,16
    2cbc:	00e12623          	sw	a4,12(sp)
    2cc0:	00c12423          	sw	a2,8(sp)
    2cc4:	b60fe0ef          	jal	ra,1024 <Number_divide>
    2cc8:	01412583          	lw	a1,20(sp)
    2ccc:	01812683          	lw	a3,24(sp)
    2cd0:	01c12783          	lw	a5,28(sp)
    2cd4:	01012503          	lw	a0,16(sp)
    2cd8:	00c12703          	lw	a4,12(sp)
    2cdc:	00812603          	lw	a2,8(sp)
    2ce0:	00a9a023          	sw	a0,0(s3)
    2ce4:	00b9a223          	sw	a1,4(s3)
    2ce8:	00d9a423          	sw	a3,8(s3)
    2cec:	00f9a623          	sw	a5,12(s3)
    2cf0:	905ff06f          	j	25f4 <execute_signal+0x9c8>
    2cf4:	00f00793          	li	a5,15
    2cf8:	00f72023          	sw	a5,0(a4)
    2cfc:	f7dfe06f          	j	1c78 <execute_signal+0x4c>
    2d00:	00f00693          	li	a3,15
    2d04:	aad790e3          	bne	a5,a3,27a4 <execute_signal+0xb78>
    2d08:	00098593          	mv	a1,s3
    2d0c:	01010513          	addi	a0,sp,16
    2d10:	00e12623          	sw	a4,12(sp)
    2d14:	00c12423          	sw	a2,8(sp)
    2d18:	b0cfe0ef          	jal	ra,1024 <Number_divide>
    2d1c:	01412583          	lw	a1,20(sp)
    2d20:	01812683          	lw	a3,24(sp)
    2d24:	01c12783          	lw	a5,28(sp)
    2d28:	01012503          	lw	a0,16(sp)
    2d2c:	00c12703          	lw	a4,12(sp)
    2d30:	00812603          	lw	a2,8(sp)
    2d34:	00a9a023          	sw	a0,0(s3)
    2d38:	00b9a223          	sw	a1,4(s3)
    2d3c:	00d9a423          	sw	a3,8(s3)
    2d40:	00f9a623          	sw	a5,12(s3)
    2d44:	a61ff06f          	j	27a4 <execute_signal+0xb78>
    2d48:	00c00793          	li	a5,12
    2d4c:	00f72023          	sw	a5,0(a4)
    2d50:	f29fe06f          	j	1c78 <execute_signal+0x4c>
    2d54:	00f00693          	li	a3,15
    2d58:	9ad79ee3          	bne	a5,a3,2714 <execute_signal+0xae8>
    2d5c:	00098593          	mv	a1,s3
    2d60:	01010513          	addi	a0,sp,16
    2d64:	00e12623          	sw	a4,12(sp)
    2d68:	00c12423          	sw	a2,8(sp)
    2d6c:	ab8fe0ef          	jal	ra,1024 <Number_divide>
    2d70:	01412583          	lw	a1,20(sp)
    2d74:	01812683          	lw	a3,24(sp)
    2d78:	01c12783          	lw	a5,28(sp)
    2d7c:	01012503          	lw	a0,16(sp)
    2d80:	00c12703          	lw	a4,12(sp)
    2d84:	00812603          	lw	a2,8(sp)
    2d88:	00a9a023          	sw	a0,0(s3)
    2d8c:	00b9a223          	sw	a1,4(s3)
    2d90:	00d9a423          	sw	a3,8(s3)
    2d94:	00f9a623          	sw	a5,12(s3)
    2d98:	97dff06f          	j	2714 <execute_signal+0xae8>
    2d9c:	00d00793          	li	a5,13
    2da0:	00f72023          	sw	a5,0(a4)
    2da4:	ed5fe06f          	j	1c78 <execute_signal+0x4c>
    2da8:	00098593          	mv	a1,s3
    2dac:	01010513          	addi	a0,sp,16
    2db0:	00e12623          	sw	a4,12(sp)
    2db4:	00c12423          	sw	a2,8(sp)
    2db8:	e98fd0ef          	jal	ra,450 <Number_plus>
    2dbc:	931ff06f          	j	26ec <execute_signal+0xac0>
    2dc0:	00098593          	mv	a1,s3
    2dc4:	01010513          	addi	a0,sp,16
    2dc8:	00e12623          	sw	a4,12(sp)
    2dcc:	00c12423          	sw	a2,8(sp)
    2dd0:	f09fd0ef          	jal	ra,cd8 <Number_multiply>
    2dd4:	919ff06f          	j	26ec <execute_signal+0xac0>
    2dd8:	00098593          	mv	a1,s3
    2ddc:	01010513          	addi	a0,sp,16
    2de0:	00e12623          	sw	a4,12(sp)
    2de4:	00c12423          	sw	a2,8(sp)
    2de8:	ef1fd0ef          	jal	ra,cd8 <Number_multiply>
    2dec:	991ff06f          	j	277c <execute_signal+0xb50>
    2df0:	00098593          	mv	a1,s3
    2df4:	01010513          	addi	a0,sp,16
    2df8:	00e12623          	sw	a4,12(sp)
    2dfc:	00c12423          	sw	a2,8(sp)
    2e00:	e50fd0ef          	jal	ra,450 <Number_plus>
    2e04:	979ff06f          	j	277c <execute_signal+0xb50>
    2e08:	00098593          	mv	a1,s3
    2e0c:	01010513          	addi	a0,sp,16
    2e10:	00e12623          	sw	a4,12(sp)
    2e14:	00c12423          	sw	a2,8(sp)
    2e18:	e38fd0ef          	jal	ra,450 <Number_plus>
    2e1c:	fb0ff06f          	j	25cc <execute_signal+0x9a0>
    2e20:	00098593          	mv	a1,s3
    2e24:	01010513          	addi	a0,sp,16
    2e28:	00e12623          	sw	a4,12(sp)
    2e2c:	00c12423          	sw	a2,8(sp)
    2e30:	ea9fd0ef          	jal	ra,cd8 <Number_multiply>
    2e34:	f98ff06f          	j	25cc <execute_signal+0x9a0>
    2e38:	00098593          	mv	a1,s3
    2e3c:	01010513          	addi	a0,sp,16
    2e40:	00e12623          	sw	a4,12(sp)
    2e44:	00c12423          	sw	a2,8(sp)
    2e48:	e08fd0ef          	jal	ra,450 <Number_plus>
    2e4c:	811ff06f          	j	265c <execute_signal+0xa30>
    2e50:	00098593          	mv	a1,s3
    2e54:	01010513          	addi	a0,sp,16
    2e58:	00e12623          	sw	a4,12(sp)
    2e5c:	00c12423          	sw	a2,8(sp)
    2e60:	e79fd0ef          	jal	ra,cd8 <Number_multiply>
    2e64:	ff8ff06f          	j	265c <execute_signal+0xa30>

00002e68 <__divdf3>:
    2e68:	fd010113          	addi	sp,sp,-48
    2e6c:	0145d793          	srli	a5,a1,0x14
    2e70:	02812423          	sw	s0,40(sp)
    2e74:	02912223          	sw	s1,36(sp)
    2e78:	03212023          	sw	s2,32(sp)
    2e7c:	01512a23          	sw	s5,20(sp)
    2e80:	01712623          	sw	s7,12(sp)
    2e84:	00c59493          	slli	s1,a1,0xc
    2e88:	02112623          	sw	ra,44(sp)
    2e8c:	01312e23          	sw	s3,28(sp)
    2e90:	01412c23          	sw	s4,24(sp)
    2e94:	01612823          	sw	s6,16(sp)
    2e98:	01812423          	sw	s8,8(sp)
    2e9c:	7ff7f793          	andi	a5,a5,2047
    2ea0:	00050413          	mv	s0,a0
    2ea4:	00060b93          	mv	s7,a2
    2ea8:	00068913          	mv	s2,a3
    2eac:	00c4d493          	srli	s1,s1,0xc
    2eb0:	01f5da93          	srli	s5,a1,0x1f
    2eb4:	18078263          	beqz	a5,3038 <__divdf3+0x1d0>
    2eb8:	7ff00713          	li	a4,2047
    2ebc:	1ce78463          	beq	a5,a4,3084 <__divdf3+0x21c>
    2ec0:	00349493          	slli	s1,s1,0x3
    2ec4:	01d55b13          	srli	s6,a0,0x1d
    2ec8:	009b6b33          	or	s6,s6,s1
    2ecc:	00800737          	lui	a4,0x800
    2ed0:	00eb6b33          	or	s6,s6,a4
    2ed4:	00351a13          	slli	s4,a0,0x3
    2ed8:	c0178993          	addi	s3,a5,-1023
    2edc:	00000493          	li	s1,0
    2ee0:	00000c13          	li	s8,0
    2ee4:	01495793          	srli	a5,s2,0x14
    2ee8:	00c91413          	slli	s0,s2,0xc
    2eec:	7ff7f793          	andi	a5,a5,2047
    2ef0:	00c45413          	srli	s0,s0,0xc
    2ef4:	01f95913          	srli	s2,s2,0x1f
    2ef8:	0e078c63          	beqz	a5,2ff0 <__divdf3+0x188>
    2efc:	7ff00713          	li	a4,2047
    2f00:	0ce78a63          	beq	a5,a4,2fd4 <__divdf3+0x16c>
    2f04:	00341413          	slli	s0,s0,0x3
    2f08:	01dbd713          	srli	a4,s7,0x1d
    2f0c:	00876733          	or	a4,a4,s0
    2f10:	c0178793          	addi	a5,a5,-1023
    2f14:	00800437          	lui	s0,0x800
    2f18:	00876433          	or	s0,a4,s0
    2f1c:	003b9893          	slli	a7,s7,0x3
    2f20:	40f989b3          	sub	s3,s3,a5
    2f24:	00000613          	li	a2,0
    2f28:	00f00713          	li	a4,15
    2f2c:	012ac6b3          	xor	a3,s5,s2
    2f30:	22976e63          	bltu	a4,s1,316c <__divdf3+0x304>
    2f34:	1fffd717          	auipc	a4,0x1fffd
    2f38:	1c870713          	addi	a4,a4,456 # 200000fc <_data+0xfc>
    2f3c:	00249493          	slli	s1,s1,0x2
    2f40:	00e484b3          	add	s1,s1,a4
    2f44:	0004a783          	lw	a5,0(s1)
    2f48:	00e787b3          	add	a5,a5,a4
    2f4c:	00078067          	jr	a5
    2f50:	40f70733          	sub	a4,a4,a5
    2f54:	03800613          	li	a2,56
    2f58:	56e65063          	bge	a2,a4,34b8 <__divdf3+0x650>
    2f5c:	00000793          	li	a5,0
    2f60:	00000613          	li	a2,0
    2f64:	00000713          	li	a4,0
    2f68:	02c12083          	lw	ra,44(sp)
    2f6c:	02812403          	lw	s0,40(sp)
    2f70:	01479793          	slli	a5,a5,0x14
    2f74:	00c7e7b3          	or	a5,a5,a2
    2f78:	01f69693          	slli	a3,a3,0x1f
    2f7c:	00d7e7b3          	or	a5,a5,a3
    2f80:	02412483          	lw	s1,36(sp)
    2f84:	02012903          	lw	s2,32(sp)
    2f88:	01c12983          	lw	s3,28(sp)
    2f8c:	01812a03          	lw	s4,24(sp)
    2f90:	01412a83          	lw	s5,20(sp)
    2f94:	01012b03          	lw	s6,16(sp)
    2f98:	00c12b83          	lw	s7,12(sp)
    2f9c:	00812c03          	lw	s8,8(sp)
    2fa0:	00070513          	mv	a0,a4
    2fa4:	00078593          	mv	a1,a5
    2fa8:	03010113          	addi	sp,sp,48
    2fac:	00008067          	ret
    2fb0:	7ff00793          	li	a5,2047
    2fb4:	00000613          	li	a2,0
    2fb8:	00000713          	li	a4,0
    2fbc:	fadff06f          	j	2f68 <__divdf3+0x100>
    2fc0:	00000693          	li	a3,0
    2fc4:	7ff00793          	li	a5,2047
    2fc8:	00080637          	lui	a2,0x80
    2fcc:	00000713          	li	a4,0
    2fd0:	f99ff06f          	j	2f68 <__divdf3+0x100>
    2fd4:	017468b3          	or	a7,s0,s7
    2fd8:	80198993          	addi	s3,s3,-2047
    2fdc:	16089663          	bnez	a7,3148 <__divdf3+0x2e0>
    2fe0:	0024e493          	ori	s1,s1,2
    2fe4:	00000413          	li	s0,0
    2fe8:	00200613          	li	a2,2
    2fec:	f3dff06f          	j	2f28 <__divdf3+0xc0>
    2ff0:	017468b3          	or	a7,s0,s7
    2ff4:	14088263          	beqz	a7,3138 <__divdf3+0x2d0>
    2ff8:	44040e63          	beqz	s0,3454 <__divdf3+0x5ec>
    2ffc:	00040513          	mv	a0,s0
    3000:	050010ef          	jal	ra,4050 <__clzsi2>
    3004:	00050793          	mv	a5,a0
    3008:	ff550693          	addi	a3,a0,-11
    300c:	01d00713          	li	a4,29
    3010:	ff878893          	addi	a7,a5,-8
    3014:	40d70733          	sub	a4,a4,a3
    3018:	01141433          	sll	s0,s0,a7
    301c:	00ebd733          	srl	a4,s7,a4
    3020:	00876433          	or	s0,a4,s0
    3024:	011b98b3          	sll	a7,s7,a7
    3028:	013787b3          	add	a5,a5,s3
    302c:	3f378993          	addi	s3,a5,1011
    3030:	00000613          	li	a2,0
    3034:	ef5ff06f          	j	2f28 <__divdf3+0xc0>
    3038:	00a4eb33          	or	s6,s1,a0
    303c:	100b0e63          	beqz	s6,3158 <__divdf3+0x2f0>
    3040:	3e048863          	beqz	s1,3430 <__divdf3+0x5c8>
    3044:	00048513          	mv	a0,s1
    3048:	008010ef          	jal	ra,4050 <__clzsi2>
    304c:	00050713          	mv	a4,a0
    3050:	ff550693          	addi	a3,a0,-11
    3054:	01d00793          	li	a5,29
    3058:	ff870a13          	addi	s4,a4,-8
    305c:	40d787b3          	sub	a5,a5,a3
    3060:	014494b3          	sll	s1,s1,s4
    3064:	00f457b3          	srl	a5,s0,a5
    3068:	0097eb33          	or	s6,a5,s1
    306c:	01441a33          	sll	s4,s0,s4
    3070:	c0d00793          	li	a5,-1011
    3074:	40e789b3          	sub	s3,a5,a4
    3078:	00000493          	li	s1,0
    307c:	00000c13          	li	s8,0
    3080:	e65ff06f          	j	2ee4 <__divdf3+0x7c>
    3084:	00a4eb33          	or	s6,s1,a0
    3088:	080b1c63          	bnez	s6,3120 <__divdf3+0x2b8>
    308c:	00000a13          	li	s4,0
    3090:	00800493          	li	s1,8
    3094:	7ff00993          	li	s3,2047
    3098:	00200c13          	li	s8,2
    309c:	e49ff06f          	j	2ee4 <__divdf3+0x7c>
    30a0:	00060c13          	mv	s8,a2
    30a4:	00200793          	li	a5,2
    30a8:	50fc0063          	beq	s8,a5,35a8 <__divdf3+0x740>
    30ac:	00300793          	li	a5,3
    30b0:	f0fc08e3          	beq	s8,a5,2fc0 <__divdf3+0x158>
    30b4:	00100793          	li	a5,1
    30b8:	00090693          	mv	a3,s2
    30bc:	eafc00e3          	beq	s8,a5,2f5c <__divdf3+0xf4>
    30c0:	3ff98793          	addi	a5,s3,1023
    30c4:	2af05c63          	blez	a5,337c <__divdf3+0x514>
    30c8:	0078f713          	andi	a4,a7,7
    30cc:	4a071e63          	bnez	a4,3588 <__divdf3+0x720>
    30d0:	01000737          	lui	a4,0x1000
    30d4:	00e47733          	and	a4,s0,a4
    30d8:	00070a63          	beqz	a4,30ec <__divdf3+0x284>
    30dc:	ff0007b7          	lui	a5,0xff000
    30e0:	fff78793          	addi	a5,a5,-1 # feffffff <__freertos_irq_stack_top+0xdefeffff>
    30e4:	00f47433          	and	s0,s0,a5
    30e8:	40098793          	addi	a5,s3,1024
    30ec:	7fe00713          	li	a4,2046
    30f0:	ecf740e3          	blt	a4,a5,2fb0 <__divdf3+0x148>
    30f4:	0038d893          	srli	a7,a7,0x3
    30f8:	01d41713          	slli	a4,s0,0x1d
    30fc:	00941613          	slli	a2,s0,0x9
    3100:	01176733          	or	a4,a4,a7
    3104:	00c65613          	srli	a2,a2,0xc
    3108:	7ff7f793          	andi	a5,a5,2047
    310c:	e5dff06f          	j	2f68 <__divdf3+0x100>
    3110:	000a8913          	mv	s2,s5
    3114:	000b0413          	mv	s0,s6
    3118:	000a0893          	mv	a7,s4
    311c:	f89ff06f          	j	30a4 <__divdf3+0x23c>
    3120:	00048b13          	mv	s6,s1
    3124:	00050a13          	mv	s4,a0
    3128:	00c00493          	li	s1,12
    312c:	7ff00993          	li	s3,2047
    3130:	00300c13          	li	s8,3
    3134:	db1ff06f          	j	2ee4 <__divdf3+0x7c>
    3138:	0014e493          	ori	s1,s1,1
    313c:	00000413          	li	s0,0
    3140:	00100613          	li	a2,1
    3144:	de5ff06f          	j	2f28 <__divdf3+0xc0>
    3148:	0034e493          	ori	s1,s1,3
    314c:	000b8893          	mv	a7,s7
    3150:	00300613          	li	a2,3
    3154:	dd5ff06f          	j	2f28 <__divdf3+0xc0>
    3158:	00000a13          	li	s4,0
    315c:	00400493          	li	s1,4
    3160:	00000993          	li	s3,0
    3164:	00100c13          	li	s8,1
    3168:	d7dff06f          	j	2ee4 <__divdf3+0x7c>
    316c:	2b646663          	bltu	s0,s6,3418 <__divdf3+0x5b0>
    3170:	2a8b0263          	beq	s6,s0,3414 <__divdf3+0x5ac>
    3174:	000a0313          	mv	t1,s4
    3178:	fff98993          	addi	s3,s3,-1
    317c:	000b0793          	mv	a5,s6
    3180:	00000a13          	li	s4,0
    3184:	00841713          	slli	a4,s0,0x8
    3188:	01075513          	srli	a0,a4,0x10
    318c:	02a7d433          	divu	s0,a5,a0
    3190:	0188d613          	srli	a2,a7,0x18
    3194:	00e66633          	or	a2,a2,a4
    3198:	01061813          	slli	a6,a2,0x10
    319c:	01085813          	srli	a6,a6,0x10
    31a0:	00889593          	slli	a1,a7,0x8
    31a4:	01035713          	srli	a4,t1,0x10
    31a8:	02a7f7b3          	remu	a5,a5,a0
    31ac:	028808b3          	mul	a7,a6,s0
    31b0:	01079793          	slli	a5,a5,0x10
    31b4:	00f767b3          	or	a5,a4,a5
    31b8:	0117fa63          	bgeu	a5,a7,31cc <__divdf3+0x364>
    31bc:	00f607b3          	add	a5,a2,a5
    31c0:	fff40713          	addi	a4,s0,-1 # 7fffff <__stack_size+0x7f7fff>
    31c4:	2ec7f263          	bgeu	a5,a2,34a8 <__divdf3+0x640>
    31c8:	00070413          	mv	s0,a4
    31cc:	411787b3          	sub	a5,a5,a7
    31d0:	02a7d8b3          	divu	a7,a5,a0
    31d4:	01031713          	slli	a4,t1,0x10
    31d8:	01075713          	srli	a4,a4,0x10
    31dc:	02a7f7b3          	remu	a5,a5,a0
    31e0:	03180fb3          	mul	t6,a6,a7
    31e4:	01079793          	slli	a5,a5,0x10
    31e8:	00f76733          	or	a4,a4,a5
    31ec:	01f77a63          	bgeu	a4,t6,3200 <__divdf3+0x398>
    31f0:	00e60733          	add	a4,a2,a4
    31f4:	fff88793          	addi	a5,a7,-1
    31f8:	2ac77063          	bgeu	a4,a2,3498 <__divdf3+0x630>
    31fc:	00078893          	mv	a7,a5
    3200:	01041413          	slli	s0,s0,0x10
    3204:	000102b7          	lui	t0,0x10
    3208:	01146433          	or	s0,s0,a7
    320c:	fff28313          	addi	t1,t0,-1 # ffff <__stack_size+0x7fff>
    3210:	006478b3          	and	a7,s0,t1
    3214:	01045e93          	srli	t4,s0,0x10
    3218:	0105de13          	srli	t3,a1,0x10
    321c:	0065f333          	and	t1,a1,t1
    3220:	03130f33          	mul	t5,t1,a7
    3224:	41f70733          	sub	a4,a4,t6
    3228:	031e08b3          	mul	a7,t3,a7
    322c:	010f5793          	srli	a5,t5,0x10
    3230:	026e8fb3          	mul	t6,t4,t1
    3234:	01f888b3          	add	a7,a7,t6
    3238:	011787b3          	add	a5,a5,a7
    323c:	03ce8eb3          	mul	t4,t4,t3
    3240:	01f7f463          	bgeu	a5,t6,3248 <__divdf3+0x3e0>
    3244:	005e8eb3          	add	t4,t4,t0
    3248:	00010fb7          	lui	t6,0x10
    324c:	ffff8f93          	addi	t6,t6,-1 # ffff <__stack_size+0x7fff>
    3250:	0107d893          	srli	a7,a5,0x10
    3254:	01f7f7b3          	and	a5,a5,t6
    3258:	01079793          	slli	a5,a5,0x10
    325c:	01ff7f33          	and	t5,t5,t6
    3260:	01d888b3          	add	a7,a7,t4
    3264:	01e787b3          	add	a5,a5,t5
    3268:	19176063          	bltu	a4,a7,33e8 <__divdf3+0x580>
    326c:	17170c63          	beq	a4,a7,33e4 <__divdf3+0x57c>
    3270:	40fa07b3          	sub	a5,s4,a5
    3274:	41170733          	sub	a4,a4,a7
    3278:	00fa3a33          	sltu	s4,s4,a5
    327c:	41470733          	sub	a4,a4,s4
    3280:	2ee60263          	beq	a2,a4,3564 <__divdf3+0x6fc>
    3284:	02a758b3          	divu	a7,a4,a0
    3288:	0107de93          	srli	t4,a5,0x10
    328c:	02a77733          	remu	a4,a4,a0
    3290:	03180f33          	mul	t5,a6,a7
    3294:	01071713          	slli	a4,a4,0x10
    3298:	00eee733          	or	a4,t4,a4
    329c:	01e77e63          	bgeu	a4,t5,32b8 <__divdf3+0x450>
    32a0:	00e60733          	add	a4,a2,a4
    32a4:	fff88e93          	addi	t4,a7,-1
    32a8:	2ec76c63          	bltu	a4,a2,35a0 <__divdf3+0x738>
    32ac:	2fe77a63          	bgeu	a4,t5,35a0 <__divdf3+0x738>
    32b0:	ffe88893          	addi	a7,a7,-2
    32b4:	00c70733          	add	a4,a4,a2
    32b8:	41e70733          	sub	a4,a4,t5
    32bc:	02a75eb3          	divu	t4,a4,a0
    32c0:	01079793          	slli	a5,a5,0x10
    32c4:	0107d793          	srli	a5,a5,0x10
    32c8:	02a77733          	remu	a4,a4,a0
    32cc:	03d80833          	mul	a6,a6,t4
    32d0:	01071713          	slli	a4,a4,0x10
    32d4:	00e7e7b3          	or	a5,a5,a4
    32d8:	0107fe63          	bgeu	a5,a6,32f4 <__divdf3+0x48c>
    32dc:	00f607b3          	add	a5,a2,a5
    32e0:	fffe8713          	addi	a4,t4,-1
    32e4:	2ac7ea63          	bltu	a5,a2,3598 <__divdf3+0x730>
    32e8:	2b07f863          	bgeu	a5,a6,3598 <__divdf3+0x730>
    32ec:	ffee8e93          	addi	t4,t4,-2
    32f0:	00c787b3          	add	a5,a5,a2
    32f4:	01089893          	slli	a7,a7,0x10
    32f8:	01d8e8b3          	or	a7,a7,t4
    32fc:	01089513          	slli	a0,a7,0x10
    3300:	0108df13          	srli	t5,a7,0x10
    3304:	01055513          	srli	a0,a0,0x10
    3308:	02650eb3          	mul	t4,a0,t1
    330c:	410787b3          	sub	a5,a5,a6
    3310:	02ae0533          	mul	a0,t3,a0
    3314:	010ed713          	srli	a4,t4,0x10
    3318:	026f0333          	mul	t1,t5,t1
    331c:	00650533          	add	a0,a0,t1
    3320:	00a70733          	add	a4,a4,a0
    3324:	03ee0e33          	mul	t3,t3,t5
    3328:	00677663          	bgeu	a4,t1,3334 <__divdf3+0x4cc>
    332c:	00010537          	lui	a0,0x10
    3330:	00ae0e33          	add	t3,t3,a0
    3334:	00010837          	lui	a6,0x10
    3338:	fff80813          	addi	a6,a6,-1 # ffff <__stack_size+0x7fff>
    333c:	01075513          	srli	a0,a4,0x10
    3340:	01077733          	and	a4,a4,a6
    3344:	01071713          	slli	a4,a4,0x10
    3348:	010efeb3          	and	t4,t4,a6
    334c:	01c50533          	add	a0,a0,t3
    3350:	01d70733          	add	a4,a4,t4
    3354:	12a7f463          	bgeu	a5,a0,347c <__divdf3+0x614>
    3358:	00f607b3          	add	a5,a2,a5
    335c:	fff88313          	addi	t1,a7,-1
    3360:	00078813          	mv	a6,a5
    3364:	1cc7e663          	bltu	a5,a2,3530 <__divdf3+0x6c8>
    3368:	24a7ea63          	bltu	a5,a0,35bc <__divdf3+0x754>
    336c:	26a78863          	beq	a5,a0,35dc <__divdf3+0x774>
    3370:	00030893          	mv	a7,t1
    3374:	0018e893          	ori	a7,a7,1
    3378:	d49ff06f          	j	30c0 <__divdf3+0x258>
    337c:	00100713          	li	a4,1
    3380:	bc0798e3          	bnez	a5,2f50 <__divdf3+0xe8>
    3384:	41e98793          	addi	a5,s3,1054
    3388:	00f89633          	sll	a2,a7,a5
    338c:	00c03633          	snez	a2,a2
    3390:	00f417b3          	sll	a5,s0,a5
    3394:	00f667b3          	or	a5,a2,a5
    3398:	00e8d8b3          	srl	a7,a7,a4
    339c:	00f8e8b3          	or	a7,a7,a5
    33a0:	0078f793          	andi	a5,a7,7
    33a4:	00e45433          	srl	s0,s0,a4
    33a8:	02078063          	beqz	a5,33c8 <__divdf3+0x560>
    33ac:	00f8f793          	andi	a5,a7,15
    33b0:	00400713          	li	a4,4
    33b4:	00e78a63          	beq	a5,a4,33c8 <__divdf3+0x560>
    33b8:	00488793          	addi	a5,a7,4
    33bc:	0117b8b3          	sltu	a7,a5,a7
    33c0:	01140433          	add	s0,s0,a7
    33c4:	00078893          	mv	a7,a5
    33c8:	008005b7          	lui	a1,0x800
    33cc:	00b475b3          	and	a1,s0,a1
    33d0:	00100793          	li	a5,1
    33d4:	00000613          	li	a2,0
    33d8:	00000713          	li	a4,0
    33dc:	b80596e3          	bnez	a1,2f68 <__divdf3+0x100>
    33e0:	1340006f          	j	3514 <__divdf3+0x6ac>
    33e4:	e8fa76e3          	bgeu	s4,a5,3270 <__divdf3+0x408>
    33e8:	00ba0eb3          	add	t4,s4,a1
    33ec:	014ebf33          	sltu	t5,t4,s4
    33f0:	00cf0fb3          	add	t6,t5,a2
    33f4:	01f70733          	add	a4,a4,t6
    33f8:	000e8a13          	mv	s4,t4
    33fc:	fff40f93          	addi	t6,s0,-1
    3400:	08e67463          	bgeu	a2,a4,3488 <__divdf3+0x620>
    3404:	15176263          	bltu	a4,a7,3548 <__divdf3+0x6e0>
    3408:	12e88e63          	beq	a7,a4,3544 <__divdf3+0x6dc>
    340c:	000f8413          	mv	s0,t6
    3410:	e61ff06f          	j	3270 <__divdf3+0x408>
    3414:	d71a60e3          	bltu	s4,a7,3174 <__divdf3+0x30c>
    3418:	001a5713          	srli	a4,s4,0x1
    341c:	01fb1313          	slli	t1,s6,0x1f
    3420:	001b5793          	srli	a5,s6,0x1
    3424:	00e36333          	or	t1,t1,a4
    3428:	01fa1a13          	slli	s4,s4,0x1f
    342c:	d59ff06f          	j	3184 <__divdf3+0x31c>
    3430:	421000ef          	jal	ra,4050 <__clzsi2>
    3434:	01550693          	addi	a3,a0,21 # 10015 <__stack_size+0x8015>
    3438:	01c00793          	li	a5,28
    343c:	02050713          	addi	a4,a0,32
    3440:	c0d7dae3          	bge	a5,a3,3054 <__divdf3+0x1ec>
    3444:	ff850793          	addi	a5,a0,-8
    3448:	00f41b33          	sll	s6,s0,a5
    344c:	00000a13          	li	s4,0
    3450:	c21ff06f          	j	3070 <__divdf3+0x208>
    3454:	000b8513          	mv	a0,s7
    3458:	3f9000ef          	jal	ra,4050 <__clzsi2>
    345c:	01550693          	addi	a3,a0,21
    3460:	01c00713          	li	a4,28
    3464:	02050793          	addi	a5,a0,32
    3468:	bad752e3          	bge	a4,a3,300c <__divdf3+0x1a4>
    346c:	ff850513          	addi	a0,a0,-8
    3470:	00000893          	li	a7,0
    3474:	00ab9433          	sll	s0,s7,a0
    3478:	bb1ff06f          	j	3028 <__divdf3+0x1c0>
    347c:	eea79ce3          	bne	a5,a0,3374 <__divdf3+0x50c>
    3480:	c40700e3          	beqz	a4,30c0 <__divdf3+0x258>
    3484:	ed5ff06f          	j	3358 <__divdf3+0x4f0>
    3488:	f8e612e3          	bne	a2,a4,340c <__divdf3+0x5a4>
    348c:	f60f0ce3          	beqz	t5,3404 <__divdf3+0x59c>
    3490:	000f8413          	mv	s0,t6
    3494:	dddff06f          	j	3270 <__divdf3+0x408>
    3498:	d7f772e3          	bgeu	a4,t6,31fc <__divdf3+0x394>
    349c:	ffe88893          	addi	a7,a7,-2
    34a0:	00c70733          	add	a4,a4,a2
    34a4:	d5dff06f          	j	3200 <__divdf3+0x398>
    34a8:	d317f0e3          	bgeu	a5,a7,31c8 <__divdf3+0x360>
    34ac:	ffe40413          	addi	s0,s0,-2
    34b0:	00c787b3          	add	a5,a5,a2
    34b4:	d19ff06f          	j	31cc <__divdf3+0x364>
    34b8:	01f00613          	li	a2,31
    34bc:	ece654e3          	bge	a2,a4,3384 <__divdf3+0x51c>
    34c0:	fe100613          	li	a2,-31
    34c4:	40f60633          	sub	a2,a2,a5
    34c8:	02000793          	li	a5,32
    34cc:	00c45633          	srl	a2,s0,a2
    34d0:	00f70863          	beq	a4,a5,34e0 <__divdf3+0x678>
    34d4:	43e98793          	addi	a5,s3,1086
    34d8:	00f417b3          	sll	a5,s0,a5
    34dc:	00f8e8b3          	or	a7,a7,a5
    34e0:	011038b3          	snez	a7,a7
    34e4:	00c8e8b3          	or	a7,a7,a2
    34e8:	0078f713          	andi	a4,a7,7
    34ec:	00000613          	li	a2,0
    34f0:	02070863          	beqz	a4,3520 <__divdf3+0x6b8>
    34f4:	00f8f793          	andi	a5,a7,15
    34f8:	00400713          	li	a4,4
    34fc:	00000413          	li	s0,0
    3500:	00e78a63          	beq	a5,a4,3514 <__divdf3+0x6ac>
    3504:	00488793          	addi	a5,a7,4
    3508:	0117b8b3          	sltu	a7,a5,a7
    350c:	01103433          	snez	s0,a7
    3510:	00078893          	mv	a7,a5
    3514:	00941613          	slli	a2,s0,0x9
    3518:	01d41713          	slli	a4,s0,0x1d
    351c:	00c65613          	srli	a2,a2,0xc
    3520:	0038d893          	srli	a7,a7,0x3
    3524:	00e8e733          	or	a4,a7,a4
    3528:	00000793          	li	a5,0
    352c:	a3dff06f          	j	2f68 <__divdf3+0x100>
    3530:	00030893          	mv	a7,t1
    3534:	e4a810e3          	bne	a6,a0,3374 <__divdf3+0x50c>
    3538:	b8b704e3          	beq	a4,a1,30c0 <__divdf3+0x258>
    353c:	0018e893          	ori	a7,a7,1
    3540:	b81ff06f          	j	30c0 <__divdf3+0x258>
    3544:	ecfef4e3          	bgeu	t4,a5,340c <__divdf3+0x5a4>
    3548:	01d58eb3          	add	t4,a1,t4
    354c:	00bebf33          	sltu	t5,t4,a1
    3550:	00cf0f33          	add	t5,t5,a2
    3554:	ffe40413          	addi	s0,s0,-2
    3558:	000e8a13          	mv	s4,t4
    355c:	01e70733          	add	a4,a4,t5
    3560:	d11ff06f          	j	3270 <__divdf3+0x408>
    3564:	c0200713          	li	a4,-1022
    3568:	3ff98793          	addi	a5,s3,1023
    356c:	fff00893          	li	a7,-1
    3570:	e0e9c6e3          	blt	s3,a4,337c <__divdf3+0x514>
    3574:	00488713          	addi	a4,a7,4
    3578:	011738b3          	sltu	a7,a4,a7
    357c:	01140433          	add	s0,s0,a7
    3580:	00070893          	mv	a7,a4
    3584:	b4dff06f          	j	30d0 <__divdf3+0x268>
    3588:	00f8f713          	andi	a4,a7,15
    358c:	00400613          	li	a2,4
    3590:	b4c700e3          	beq	a4,a2,30d0 <__divdf3+0x268>
    3594:	fe1ff06f          	j	3574 <__divdf3+0x70c>
    3598:	00070e93          	mv	t4,a4
    359c:	d59ff06f          	j	32f4 <__divdf3+0x48c>
    35a0:	000e8893          	mv	a7,t4
    35a4:	d15ff06f          	j	32b8 <__divdf3+0x450>
    35a8:	00090693          	mv	a3,s2
    35ac:	7ff00793          	li	a5,2047
    35b0:	00000613          	li	a2,0
    35b4:	00000713          	li	a4,0
    35b8:	9b1ff06f          	j	2f68 <__divdf3+0x100>
    35bc:	00159313          	slli	t1,a1,0x1
    35c0:	00b33833          	sltu	a6,t1,a1
    35c4:	00c80833          	add	a6,a6,a2
    35c8:	01078833          	add	a6,a5,a6
    35cc:	ffe88893          	addi	a7,a7,-2
    35d0:	00030593          	mv	a1,t1
    35d4:	f6a802e3          	beq	a6,a0,3538 <__divdf3+0x6d0>
    35d8:	d9dff06f          	j	3374 <__divdf3+0x50c>
    35dc:	fee5e0e3          	bltu	a1,a4,35bc <__divdf3+0x754>
    35e0:	00030893          	mv	a7,t1
    35e4:	f4b71ce3          	bne	a4,a1,353c <__divdf3+0x6d4>
    35e8:	ad9ff06f          	j	30c0 <__divdf3+0x258>

000035ec <__muldf3>:
    35ec:	fc010113          	addi	sp,sp,-64
    35f0:	0145d793          	srli	a5,a1,0x14
    35f4:	02812c23          	sw	s0,56(sp)
    35f8:	02912a23          	sw	s1,52(sp)
    35fc:	03312623          	sw	s3,44(sp)
    3600:	01812c23          	sw	s8,24(sp)
    3604:	00c59493          	slli	s1,a1,0xc
    3608:	02112e23          	sw	ra,60(sp)
    360c:	03212823          	sw	s2,48(sp)
    3610:	03412423          	sw	s4,40(sp)
    3614:	03512223          	sw	s5,36(sp)
    3618:	03612023          	sw	s6,32(sp)
    361c:	01712e23          	sw	s7,28(sp)
    3620:	7ff7f793          	andi	a5,a5,2047
    3624:	00050413          	mv	s0,a0
    3628:	00060c13          	mv	s8,a2
    362c:	00c4d493          	srli	s1,s1,0xc
    3630:	01f5d993          	srli	s3,a1,0x1f
    3634:	1e078663          	beqz	a5,3820 <__muldf3+0x234>
    3638:	7ff00813          	li	a6,2047
    363c:	23078c63          	beq	a5,a6,3874 <__muldf3+0x288>
    3640:	00349493          	slli	s1,s1,0x3
    3644:	01d55593          	srli	a1,a0,0x1d
    3648:	0095e5b3          	or	a1,a1,s1
    364c:	008004b7          	lui	s1,0x800
    3650:	0095e4b3          	or	s1,a1,s1
    3654:	00351a13          	slli	s4,a0,0x3
    3658:	c0178b93          	addi	s7,a5,-1023
    365c:	00000b13          	li	s6,0
    3660:	00000a93          	li	s5,0
    3664:	0146d793          	srli	a5,a3,0x14
    3668:	00c69813          	slli	a6,a3,0xc
    366c:	7ff7f793          	andi	a5,a5,2047
    3670:	000c0e93          	mv	t4,s8
    3674:	00c85413          	srli	s0,a6,0xc
    3678:	01f6d913          	srli	s2,a3,0x1f
    367c:	14078863          	beqz	a5,37cc <__muldf3+0x1e0>
    3680:	7ff00813          	li	a6,2047
    3684:	0b078a63          	beq	a5,a6,3738 <__muldf3+0x14c>
    3688:	00341693          	slli	a3,s0,0x3
    368c:	c0178793          	addi	a5,a5,-1023
    3690:	01dc5593          	srli	a1,s8,0x1d
    3694:	00d5e5b3          	or	a1,a1,a3
    3698:	01778e33          	add	t3,a5,s7
    369c:	008006b7          	lui	a3,0x800
    36a0:	00a00793          	li	a5,10
    36a4:	00d5e433          	or	s0,a1,a3
    36a8:	003c1e93          	slli	t4,s8,0x3
    36ac:	00000513          	li	a0,0
    36b0:	001e0313          	addi	t1,t3,1
    36b4:	2367c663          	blt	a5,s6,38e0 <__muldf3+0x2f4>
    36b8:	0129c833          	xor	a6,s3,s2
    36bc:	00080693          	mv	a3,a6
    36c0:	00200613          	li	a2,2
    36c4:	0b664263          	blt	a2,s6,3768 <__muldf3+0x17c>
    36c8:	fffb0893          	addi	a7,s6,-1
    36cc:	00100593          	li	a1,1
    36d0:	2715ec63          	bltu	a1,a7,3948 <__muldf3+0x35c>
    36d4:	1ac50e63          	beq	a0,a2,3890 <__muldf3+0x2a4>
    36d8:	00100793          	li	a5,1
    36dc:	00068813          	mv	a6,a3
    36e0:	0cf51063          	bne	a0,a5,37a0 <__muldf3+0x1b4>
    36e4:	00000793          	li	a5,0
    36e8:	00000693          	li	a3,0
    36ec:	00000713          	li	a4,0
    36f0:	03c12083          	lw	ra,60(sp)
    36f4:	03812403          	lw	s0,56(sp)
    36f8:	01479793          	slli	a5,a5,0x14
    36fc:	00d7e7b3          	or	a5,a5,a3
    3700:	01f81813          	slli	a6,a6,0x1f
    3704:	0107e7b3          	or	a5,a5,a6
    3708:	03412483          	lw	s1,52(sp)
    370c:	03012903          	lw	s2,48(sp)
    3710:	02c12983          	lw	s3,44(sp)
    3714:	02812a03          	lw	s4,40(sp)
    3718:	02412a83          	lw	s5,36(sp)
    371c:	02012b03          	lw	s6,32(sp)
    3720:	01c12b83          	lw	s7,28(sp)
    3724:	01812c03          	lw	s8,24(sp)
    3728:	00070513          	mv	a0,a4
    372c:	00078593          	mv	a1,a5
    3730:	04010113          	addi	sp,sp,64
    3734:	00008067          	ret
    3738:	01846733          	or	a4,s0,s8
    373c:	7ffb8e13          	addi	t3,s7,2047
    3740:	16070a63          	beqz	a4,38b4 <__muldf3+0x2c8>
    3744:	00001737          	lui	a4,0x1
    3748:	0129c833          	xor	a6,s3,s2
    374c:	80070713          	addi	a4,a4,-2048 # 800 <Number_plus+0x3b0>
    3750:	003b6b13          	ori	s6,s6,3
    3754:	00a00613          	li	a2,10
    3758:	00080693          	mv	a3,a6
    375c:	00eb8333          	add	t1,s7,a4
    3760:	59664463          	blt	a2,s6,3ce8 <__muldf3+0x6fc>
    3764:	00300513          	li	a0,3
    3768:	00100613          	li	a2,1
    376c:	01661633          	sll	a2,a2,s6
    3770:	53067713          	andi	a4,a2,1328
    3774:	02070a63          	beqz	a4,37a8 <__muldf3+0x1bc>
    3778:	00200793          	li	a5,2
    377c:	10fa8a63          	beq	s5,a5,3890 <__muldf3+0x2a4>
    3780:	00300793          	li	a5,3
    3784:	1afa8863          	beq	s5,a5,3934 <__muldf3+0x348>
    3788:	000a8513          	mv	a0,s5
    378c:	00100793          	li	a5,1
    3790:	00048413          	mv	s0,s1
    3794:	000a0e93          	mv	t4,s4
    3798:	00068813          	mv	a6,a3
    379c:	f4f504e3          	beq	a0,a5,36e4 <__muldf3+0xf8>
    37a0:	00030e13          	mv	t3,t1
    37a4:	36c0006f          	j	3b10 <__muldf3+0x524>
    37a8:	24067793          	andi	a5,a2,576
    37ac:	0e079c63          	bnez	a5,38a4 <__muldf3+0x2b8>
    37b0:	08867613          	andi	a2,a2,136
    37b4:	18060a63          	beqz	a2,3948 <__muldf3+0x35c>
    37b8:	00090693          	mv	a3,s2
    37bc:	00040493          	mv	s1,s0
    37c0:	000e8a13          	mv	s4,t4
    37c4:	00050a93          	mv	s5,a0
    37c8:	fb1ff06f          	j	3778 <__muldf3+0x18c>
    37cc:	018467b3          	or	a5,s0,s8
    37d0:	14078063          	beqz	a5,3910 <__muldf3+0x324>
    37d4:	42040c63          	beqz	s0,3c0c <__muldf3+0x620>
    37d8:	00040513          	mv	a0,s0
    37dc:	075000ef          	jal	ra,4050 <__clzsi2>
    37e0:	00050e13          	mv	t3,a0
    37e4:	ff550713          	addi	a4,a0,-11
    37e8:	01d00793          	li	a5,29
    37ec:	ff8e0e93          	addi	t4,t3,-8
    37f0:	40e787b3          	sub	a5,a5,a4
    37f4:	01d416b3          	sll	a3,s0,t4
    37f8:	00fc57b3          	srl	a5,s8,a5
    37fc:	00d7e433          	or	s0,a5,a3
    3800:	01dc1eb3          	sll	t4,s8,t4
    3804:	41cb8e33          	sub	t3,s7,t3
    3808:	c0de0e13          	addi	t3,t3,-1011
    380c:	00a00793          	li	a5,10
    3810:	00000513          	li	a0,0
    3814:	001e0313          	addi	t1,t3,1
    3818:	eb67d0e3          	bge	a5,s6,36b8 <__muldf3+0xcc>
    381c:	0c40006f          	j	38e0 <__muldf3+0x2f4>
    3820:	00a4ea33          	or	s4,s1,a0
    3824:	0c0a0c63          	beqz	s4,38fc <__muldf3+0x310>
    3828:	00d12623          	sw	a3,12(sp)
    382c:	3a048c63          	beqz	s1,3be4 <__muldf3+0x5f8>
    3830:	00048513          	mv	a0,s1
    3834:	01d000ef          	jal	ra,4050 <__clzsi2>
    3838:	00c12683          	lw	a3,12(sp)
    383c:	00050713          	mv	a4,a0
    3840:	ff550613          	addi	a2,a0,-11
    3844:	01d00793          	li	a5,29
    3848:	ff870a13          	addi	s4,a4,-8
    384c:	40c787b3          	sub	a5,a5,a2
    3850:	014494b3          	sll	s1,s1,s4
    3854:	00f457b3          	srl	a5,s0,a5
    3858:	0097e4b3          	or	s1,a5,s1
    385c:	01441a33          	sll	s4,s0,s4
    3860:	c0d00793          	li	a5,-1011
    3864:	40e78bb3          	sub	s7,a5,a4
    3868:	00000b13          	li	s6,0
    386c:	00000a93          	li	s5,0
    3870:	df5ff06f          	j	3664 <__muldf3+0x78>
    3874:	00a4ea33          	or	s4,s1,a0
    3878:	060a1863          	bnez	s4,38e8 <__muldf3+0x2fc>
    387c:	00000493          	li	s1,0
    3880:	00800b13          	li	s6,8
    3884:	7ff00b93          	li	s7,2047
    3888:	00200a93          	li	s5,2
    388c:	dd9ff06f          	j	3664 <__muldf3+0x78>
    3890:	00068813          	mv	a6,a3
    3894:	7ff00793          	li	a5,2047
    3898:	00000693          	li	a3,0
    389c:	00000713          	li	a4,0
    38a0:	e51ff06f          	j	36f0 <__muldf3+0x104>
    38a4:	00000813          	li	a6,0
    38a8:	7ff00793          	li	a5,2047
    38ac:	000806b7          	lui	a3,0x80
    38b0:	e41ff06f          	j	36f0 <__muldf3+0x104>
    38b4:	000017b7          	lui	a5,0x1
    38b8:	80078793          	addi	a5,a5,-2048 # 800 <Number_plus+0x3b0>
    38bc:	002b6b13          	ori	s6,s6,2
    38c0:	00a00693          	li	a3,10
    38c4:	00fb8333          	add	t1,s7,a5
    38c8:	3766de63          	bge	a3,s6,3c44 <__muldf3+0x658>
    38cc:	00000e93          	li	t4,0
    38d0:	00e00793          	li	a5,14
    38d4:	00200513          	li	a0,2
    38d8:	00b00693          	li	a3,11
    38dc:	40d78263          	beq	a5,a3,3ce0 <__muldf3+0x6f4>
    38e0:	00098693          	mv	a3,s3
    38e4:	e95ff06f          	j	3778 <__muldf3+0x18c>
    38e8:	00050a13          	mv	s4,a0
    38ec:	00c00b13          	li	s6,12
    38f0:	7ff00b93          	li	s7,2047
    38f4:	00300a93          	li	s5,3
    38f8:	d6dff06f          	j	3664 <__muldf3+0x78>
    38fc:	00000493          	li	s1,0
    3900:	00400b13          	li	s6,4
    3904:	00000b93          	li	s7,0
    3908:	00100a93          	li	s5,1
    390c:	d59ff06f          	j	3664 <__muldf3+0x78>
    3910:	000b8e13          	mv	t3,s7
    3914:	001b6b13          	ori	s6,s6,1
    3918:	00a00793          	li	a5,10
    391c:	00000413          	li	s0,0
    3920:	00000e93          	li	t4,0
    3924:	00100513          	li	a0,1
    3928:	001e0313          	addi	t1,t3,1
    392c:	d967d6e3          	bge	a5,s6,36b8 <__muldf3+0xcc>
    3930:	fb1ff06f          	j	38e0 <__muldf3+0x2f4>
    3934:	00000813          	li	a6,0
    3938:	7ff00793          	li	a5,2047
    393c:	000806b7          	lui	a3,0x80
    3940:	00000713          	li	a4,0
    3944:	dadff06f          	j	36f0 <__muldf3+0x104>
    3948:	000105b7          	lui	a1,0x10
    394c:	fff58713          	addi	a4,a1,-1 # ffff <__stack_size+0x7fff>
    3950:	010a5793          	srli	a5,s4,0x10
    3954:	010ed893          	srli	a7,t4,0x10
    3958:	00ea7a33          	and	s4,s4,a4
    395c:	00eefeb3          	and	t4,t4,a4
    3960:	03da0733          	mul	a4,s4,t4
    3964:	03d78633          	mul	a2,a5,t4
    3968:	01075513          	srli	a0,a4,0x10
    396c:	034886b3          	mul	a3,a7,s4
    3970:	00c686b3          	add	a3,a3,a2
    3974:	00d50533          	add	a0,a0,a3
    3978:	03178f33          	mul	t5,a5,a7
    397c:	00c57463          	bgeu	a0,a2,3984 <__muldf3+0x398>
    3980:	00bf0f33          	add	t5,t5,a1
    3984:	000103b7          	lui	t2,0x10
    3988:	fff38613          	addi	a2,t2,-1 # ffff <__stack_size+0x7fff>
    398c:	00c575b3          	and	a1,a0,a2
    3990:	00c476b3          	and	a3,s0,a2
    3994:	00c77733          	and	a4,a4,a2
    3998:	01045f93          	srli	t6,s0,0x10
    399c:	01059593          	slli	a1,a1,0x10
    39a0:	02da02b3          	mul	t0,s4,a3
    39a4:	00e585b3          	add	a1,a1,a4
    39a8:	01055513          	srli	a0,a0,0x10
    39ac:	02d78733          	mul	a4,a5,a3
    39b0:	0102d613          	srli	a2,t0,0x10
    39b4:	034f8a33          	mul	s4,t6,s4
    39b8:	00ea0a33          	add	s4,s4,a4
    39bc:	01460633          	add	a2,a2,s4
    39c0:	03f787b3          	mul	a5,a5,t6
    39c4:	00e67463          	bgeu	a2,a4,39cc <__muldf3+0x3e0>
    39c8:	007787b3          	add	a5,a5,t2
    39cc:	00010937          	lui	s2,0x10
    39d0:	fff90413          	addi	s0,s2,-1 # ffff <__stack_size+0x7fff>
    39d4:	00867733          	and	a4,a2,s0
    39d8:	0104d393          	srli	t2,s1,0x10
    39dc:	0082f2b3          	and	t0,t0,s0
    39e0:	0084f4b3          	and	s1,s1,s0
    39e4:	01071713          	slli	a4,a4,0x10
    39e8:	029e8433          	mul	s0,t4,s1
    39ec:	00570733          	add	a4,a4,t0
    39f0:	01065613          	srli	a2,a2,0x10
    39f4:	00f60633          	add	a2,a2,a5
    39f8:	00e50533          	add	a0,a0,a4
    39fc:	029882b3          	mul	t0,a7,s1
    3a00:	01045793          	srli	a5,s0,0x10
    3a04:	03d38eb3          	mul	t4,t2,t4
    3a08:	01d282b3          	add	t0,t0,t4
    3a0c:	005787b3          	add	a5,a5,t0
    3a10:	027888b3          	mul	a7,a7,t2
    3a14:	01d7f463          	bgeu	a5,t4,3a1c <__muldf3+0x430>
    3a18:	012888b3          	add	a7,a7,s2
    3a1c:	00010937          	lui	s2,0x10
    3a20:	fff90e93          	addi	t4,s2,-1 # ffff <__stack_size+0x7fff>
    3a24:	01d7f2b3          	and	t0,a5,t4
    3a28:	01d47eb3          	and	t4,s0,t4
    3a2c:	01029293          	slli	t0,t0,0x10
    3a30:	0107d793          	srli	a5,a5,0x10
    3a34:	011787b3          	add	a5,a5,a7
    3a38:	02968433          	mul	s0,a3,s1
    3a3c:	01d288b3          	add	a7,t0,t4
    3a40:	02d386b3          	mul	a3,t2,a3
    3a44:	01045293          	srli	t0,s0,0x10
    3a48:	029f84b3          	mul	s1,t6,s1
    3a4c:	00d484b3          	add	s1,s1,a3
    3a50:	009282b3          	add	t0,t0,s1
    3a54:	027f8eb3          	mul	t4,t6,t2
    3a58:	00d2f463          	bgeu	t0,a3,3a60 <__muldf3+0x474>
    3a5c:	012e8eb3          	add	t4,t4,s2
    3a60:	00010fb7          	lui	t6,0x10
    3a64:	ffff8f93          	addi	t6,t6,-1 # ffff <__stack_size+0x7fff>
    3a68:	01f2f6b3          	and	a3,t0,t6
    3a6c:	01f47433          	and	s0,s0,t6
    3a70:	01069693          	slli	a3,a3,0x10
    3a74:	01e50533          	add	a0,a0,t5
    3a78:	008686b3          	add	a3,a3,s0
    3a7c:	00c68633          	add	a2,a3,a2
    3a80:	00e53733          	sltu	a4,a0,a4
    3a84:	00e60733          	add	a4,a2,a4
    3a88:	011508b3          	add	a7,a0,a7
    3a8c:	00f707b3          	add	a5,a4,a5
    3a90:	00a8b533          	sltu	a0,a7,a0
    3a94:	00a78533          	add	a0,a5,a0
    3a98:	00d636b3          	sltu	a3,a2,a3
    3a9c:	00c73633          	sltu	a2,a4,a2
    3aa0:	00c6e6b3          	or	a3,a3,a2
    3aa4:	00e7b733          	sltu	a4,a5,a4
    3aa8:	0102d613          	srli	a2,t0,0x10
    3aac:	00f537b3          	sltu	a5,a0,a5
    3ab0:	00f76733          	or	a4,a4,a5
    3ab4:	00c686b3          	add	a3,a3,a2
    3ab8:	00d70733          	add	a4,a4,a3
    3abc:	01d70733          	add	a4,a4,t4
    3ac0:	00989e93          	slli	t4,a7,0x9
    3ac4:	01755793          	srli	a5,a0,0x17
    3ac8:	00971713          	slli	a4,a4,0x9
    3acc:	00beeeb3          	or	t4,t4,a1
    3ad0:	00f76433          	or	s0,a4,a5
    3ad4:	01d03eb3          	snez	t4,t4
    3ad8:	0178d793          	srli	a5,a7,0x17
    3adc:	00feeeb3          	or	t4,t4,a5
    3ae0:	010007b7          	lui	a5,0x1000
    3ae4:	00951513          	slli	a0,a0,0x9
    3ae8:	00f477b3          	and	a5,s0,a5
    3aec:	00aeeeb3          	or	t4,t4,a0
    3af0:	02078063          	beqz	a5,3b10 <__muldf3+0x524>
    3af4:	001ed793          	srli	a5,t4,0x1
    3af8:	001efe93          	andi	t4,t4,1
    3afc:	01f41713          	slli	a4,s0,0x1f
    3b00:	01d7e7b3          	or	a5,a5,t4
    3b04:	00e7eeb3          	or	t4,a5,a4
    3b08:	00145413          	srli	s0,s0,0x1
    3b0c:	00030e13          	mv	t3,t1
    3b10:	3ffe0793          	addi	a5,t3,1023
    3b14:	06f05463          	blez	a5,3b7c <__muldf3+0x590>
    3b18:	007ef713          	andi	a4,t4,7
    3b1c:	02070063          	beqz	a4,3b3c <__muldf3+0x550>
    3b20:	00fef713          	andi	a4,t4,15
    3b24:	00400693          	li	a3,4
    3b28:	00d70a63          	beq	a4,a3,3b3c <__muldf3+0x550>
    3b2c:	004e8713          	addi	a4,t4,4
    3b30:	01d73eb3          	sltu	t4,a4,t4
    3b34:	01d40433          	add	s0,s0,t4
    3b38:	00070e93          	mv	t4,a4
    3b3c:	01000737          	lui	a4,0x1000
    3b40:	00e47733          	and	a4,s0,a4
    3b44:	00070a63          	beqz	a4,3b58 <__muldf3+0x56c>
    3b48:	ff0007b7          	lui	a5,0xff000
    3b4c:	fff78793          	addi	a5,a5,-1 # feffffff <__freertos_irq_stack_top+0xdefeffff>
    3b50:	00f47433          	and	s0,s0,a5
    3b54:	400e0793          	addi	a5,t3,1024
    3b58:	7fe00713          	li	a4,2046
    3b5c:	0cf74c63          	blt	a4,a5,3c34 <__muldf3+0x648>
    3b60:	003ede93          	srli	t4,t4,0x3
    3b64:	01d41713          	slli	a4,s0,0x1d
    3b68:	00941693          	slli	a3,s0,0x9
    3b6c:	01d76733          	or	a4,a4,t4
    3b70:	00c6d693          	srli	a3,a3,0xc
    3b74:	7ff7f793          	andi	a5,a5,2047
    3b78:	b79ff06f          	j	36f0 <__muldf3+0x104>
    3b7c:	00100713          	li	a4,1
    3b80:	0c079e63          	bnez	a5,3c5c <__muldf3+0x670>
    3b84:	41ee0e13          	addi	t3,t3,1054
    3b88:	01ce9633          	sll	a2,t4,t3
    3b8c:	00c03633          	snez	a2,a2
    3b90:	01c41e33          	sll	t3,s0,t3
    3b94:	00eedeb3          	srl	t4,t4,a4
    3b98:	01c66633          	or	a2,a2,t3
    3b9c:	01d66633          	or	a2,a2,t4
    3ba0:	00767793          	andi	a5,a2,7
    3ba4:	00e455b3          	srl	a1,s0,a4
    3ba8:	02078063          	beqz	a5,3bc8 <__muldf3+0x5dc>
    3bac:	00f67793          	andi	a5,a2,15
    3bb0:	00400713          	li	a4,4
    3bb4:	00e78a63          	beq	a5,a4,3bc8 <__muldf3+0x5dc>
    3bb8:	00460793          	addi	a5,a2,4 # 80004 <__stack_size+0x78004>
    3bbc:	00c7b633          	sltu	a2,a5,a2
    3bc0:	00c585b3          	add	a1,a1,a2
    3bc4:	00078613          	mv	a2,a5
    3bc8:	00800537          	lui	a0,0x800
    3bcc:	00a5f533          	and	a0,a1,a0
    3bd0:	00100793          	li	a5,1
    3bd4:	00000693          	li	a3,0
    3bd8:	00000713          	li	a4,0
    3bdc:	b0051ae3          	bnez	a0,36f0 <__muldf3+0x104>
    3be0:	0e40006f          	j	3cc4 <__muldf3+0x6d8>
    3be4:	46c000ef          	jal	ra,4050 <__clzsi2>
    3be8:	01550613          	addi	a2,a0,21 # 800015 <__stack_size+0x7f8015>
    3bec:	01c00793          	li	a5,28
    3bf0:	00c12683          	lw	a3,12(sp)
    3bf4:	02050713          	addi	a4,a0,32
    3bf8:	c4c7d6e3          	bge	a5,a2,3844 <__muldf3+0x258>
    3bfc:	ff850513          	addi	a0,a0,-8
    3c00:	00000a13          	li	s4,0
    3c04:	00a414b3          	sll	s1,s0,a0
    3c08:	c59ff06f          	j	3860 <__muldf3+0x274>
    3c0c:	000c0513          	mv	a0,s8
    3c10:	440000ef          	jal	ra,4050 <__clzsi2>
    3c14:	01550713          	addi	a4,a0,21
    3c18:	01c00793          	li	a5,28
    3c1c:	02050e13          	addi	t3,a0,32
    3c20:	bce7d4e3          	bge	a5,a4,37e8 <__muldf3+0x1fc>
    3c24:	ff850513          	addi	a0,a0,-8
    3c28:	00000e93          	li	t4,0
    3c2c:	00ac1433          	sll	s0,s8,a0
    3c30:	bd5ff06f          	j	3804 <__muldf3+0x218>
    3c34:	7ff00793          	li	a5,2047
    3c38:	00000693          	li	a3,0
    3c3c:	00000713          	li	a4,0
    3c40:	ab1ff06f          	j	36f0 <__muldf3+0x104>
    3c44:	0129c833          	xor	a6,s3,s2
    3c48:	00080693          	mv	a3,a6
    3c4c:	00000413          	li	s0,0
    3c50:	00000e93          	li	t4,0
    3c54:	00200513          	li	a0,2
    3c58:	a69ff06f          	j	36c0 <__muldf3+0xd4>
    3c5c:	40f70733          	sub	a4,a4,a5
    3c60:	03800693          	li	a3,56
    3c64:	a8e6c0e3          	blt	a3,a4,36e4 <__muldf3+0xf8>
    3c68:	01f00693          	li	a3,31
    3c6c:	f0e6dce3          	bge	a3,a4,3b84 <__muldf3+0x598>
    3c70:	fe100693          	li	a3,-31
    3c74:	40f687b3          	sub	a5,a3,a5
    3c78:	02000693          	li	a3,32
    3c7c:	00f457b3          	srl	a5,s0,a5
    3c80:	00d70863          	beq	a4,a3,3c90 <__muldf3+0x6a4>
    3c84:	43ee0e13          	addi	t3,t3,1086
    3c88:	01c41e33          	sll	t3,s0,t3
    3c8c:	01ceeeb3          	or	t4,t4,t3
    3c90:	01d03633          	snez	a2,t4
    3c94:	00f66633          	or	a2,a2,a5
    3c98:	00767713          	andi	a4,a2,7
    3c9c:	00000693          	li	a3,0
    3ca0:	02070863          	beqz	a4,3cd0 <__muldf3+0x6e4>
    3ca4:	00f67793          	andi	a5,a2,15
    3ca8:	00400713          	li	a4,4
    3cac:	00000593          	li	a1,0
    3cb0:	00e78a63          	beq	a5,a4,3cc4 <__muldf3+0x6d8>
    3cb4:	00460793          	addi	a5,a2,4
    3cb8:	00c7b633          	sltu	a2,a5,a2
    3cbc:	00c035b3          	snez	a1,a2
    3cc0:	00078613          	mv	a2,a5
    3cc4:	00959693          	slli	a3,a1,0x9
    3cc8:	01d59713          	slli	a4,a1,0x1d
    3ccc:	00c6d693          	srli	a3,a3,0xc
    3cd0:	00365613          	srli	a2,a2,0x3
    3cd4:	00e66733          	or	a4,a2,a4
    3cd8:	00000793          	li	a5,0
    3cdc:	a15ff06f          	j	36f0 <__muldf3+0x104>
    3ce0:	00070413          	mv	s0,a4
    3ce4:	ad5ff06f          	j	37b8 <__muldf3+0x1cc>
    3ce8:	00f00713          	li	a4,15
    3cec:	00eb1a63          	bne	s6,a4,3d00 <__muldf3+0x714>
    3cf0:	00000813          	li	a6,0
    3cf4:	000806b7          	lui	a3,0x80
    3cf8:	00000713          	li	a4,0
    3cfc:	9f5ff06f          	j	36f0 <__muldf3+0x104>
    3d00:	00040713          	mv	a4,s0
    3d04:	00b00793          	li	a5,11
    3d08:	00300513          	li	a0,3
    3d0c:	bcdff06f          	j	38d8 <__muldf3+0x2ec>

00003d10 <__fixdfdi>:
    3d10:	0145d793          	srli	a5,a1,0x14
    3d14:	001006b7          	lui	a3,0x100
    3d18:	fff68713          	addi	a4,a3,-1 # fffff <__stack_size+0xf7fff>
    3d1c:	7ff7f793          	andi	a5,a5,2047
    3d20:	3fe00613          	li	a2,1022
    3d24:	00b77733          	and	a4,a4,a1
    3d28:	01f5d593          	srli	a1,a1,0x1f
    3d2c:	02f65863          	bge	a2,a5,3d5c <__fixdfdi+0x4c>
    3d30:	43d00613          	li	a2,1085
    3d34:	02f65a63          	bge	a2,a5,3d68 <__fixdfdi+0x58>
    3d38:	00100513          	li	a0,1
    3d3c:	40b50533          	sub	a0,a0,a1
    3d40:	41f55713          	srai	a4,a0,0x1f
    3d44:	800005b7          	lui	a1,0x80000
    3d48:	00a037b3          	snez	a5,a0
    3d4c:	40e585b3          	sub	a1,a1,a4
    3d50:	40a00533          	neg	a0,a0
    3d54:	40f585b3          	sub	a1,a1,a5
    3d58:	00008067          	ret
    3d5c:	00000513          	li	a0,0
    3d60:	00000593          	li	a1,0
    3d64:	00008067          	ret
    3d68:	43200613          	li	a2,1074
    3d6c:	00d766b3          	or	a3,a4,a3
    3d70:	02f65263          	bge	a2,a5,3d94 <__fixdfdi+0x84>
    3d74:	bad78713          	addi	a4,a5,-1107
    3d78:	bcd78793          	addi	a5,a5,-1075
    3d7c:	06074463          	bltz	a4,3de4 <__fixdfdi+0xd4>
    3d80:	00e51733          	sll	a4,a0,a4
    3d84:	00000513          	li	a0,0
    3d88:	02059a63          	bnez	a1,3dbc <__fixdfdi+0xac>
    3d8c:	00070593          	mv	a1,a4
    3d90:	00008067          	ret
    3d94:	43300713          	li	a4,1075
    3d98:	40f70733          	sub	a4,a4,a5
    3d9c:	01f00613          	li	a2,31
    3da0:	02e64863          	blt	a2,a4,3dd0 <__fixdfdi+0xc0>
    3da4:	bed78793          	addi	a5,a5,-1043
    3da8:	00e55533          	srl	a0,a0,a4
    3dac:	00f697b3          	sll	a5,a3,a5
    3db0:	00a7e533          	or	a0,a5,a0
    3db4:	00e6d733          	srl	a4,a3,a4
    3db8:	fc058ae3          	beqz	a1,3d8c <__fixdfdi+0x7c>
    3dbc:	00a037b3          	snez	a5,a0
    3dc0:	40e005b3          	neg	a1,a4
    3dc4:	40a00533          	neg	a0,a0
    3dc8:	40f585b3          	sub	a1,a1,a5
    3dcc:	00008067          	ret
    3dd0:	41300513          	li	a0,1043
    3dd4:	40f50533          	sub	a0,a0,a5
    3dd8:	00a6d533          	srl	a0,a3,a0
    3ddc:	00000713          	li	a4,0
    3de0:	fa9ff06f          	j	3d88 <__fixdfdi+0x78>
    3de4:	01f00713          	li	a4,31
    3de8:	00155613          	srli	a2,a0,0x1
    3dec:	40f70733          	sub	a4,a4,a5
    3df0:	00e65633          	srl	a2,a2,a4
    3df4:	00f69733          	sll	a4,a3,a5
    3df8:	00e66733          	or	a4,a2,a4
    3dfc:	00f51533          	sll	a0,a0,a5
    3e00:	f89ff06f          	j	3d88 <__fixdfdi+0x78>

00003e04 <__floatdidf>:
    3e04:	fe010113          	addi	sp,sp,-32
    3e08:	00112e23          	sw	ra,28(sp)
    3e0c:	00812c23          	sw	s0,24(sp)
    3e10:	00912a23          	sw	s1,20(sp)
    3e14:	01212823          	sw	s2,16(sp)
    3e18:	01312623          	sw	s3,12(sp)
    3e1c:	00b567b3          	or	a5,a0,a1
    3e20:	0c078463          	beqz	a5,3ee8 <__floatdidf+0xe4>
    3e24:	00058413          	mv	s0,a1
    3e28:	00050493          	mv	s1,a0
    3e2c:	01f5d913          	srli	s2,a1,0x1f
    3e30:	1205ca63          	bltz	a1,3f64 <__floatdidf+0x160>
    3e34:	00040993          	mv	s3,s0
    3e38:	0e040a63          	beqz	s0,3f2c <__floatdidf+0x128>
    3e3c:	00040513          	mv	a0,s0
    3e40:	210000ef          	jal	ra,4050 <__clzsi2>
    3e44:	43e00793          	li	a5,1086
    3e48:	40a787b3          	sub	a5,a5,a0
    3e4c:	43300713          	li	a4,1075
    3e50:	18f75e63          	bge	a4,a5,3fec <__floatdidf+0x1e8>
    3e54:	43600713          	li	a4,1078
    3e58:	12f74463          	blt	a4,a5,3f80 <__floatdidf+0x17c>
    3e5c:	00800713          	li	a4,8
    3e60:	00048693          	mv	a3,s1
    3e64:	ff850593          	addi	a1,a0,-8
    3e68:	00e50e63          	beq	a0,a4,3e84 <__floatdidf+0x80>
    3e6c:	02800613          	li	a2,40
    3e70:	40a60633          	sub	a2,a2,a0
    3e74:	00c4d633          	srl	a2,s1,a2
    3e78:	00b41733          	sll	a4,s0,a1
    3e7c:	00e669b3          	or	s3,a2,a4
    3e80:	00b496b3          	sll	a3,s1,a1
    3e84:	ff800637          	lui	a2,0xff800
    3e88:	fff60613          	addi	a2,a2,-1 # ff7fffff <__freertos_irq_stack_top+0xdf7effff>
    3e8c:	0076f593          	andi	a1,a3,7
    3e90:	00c9f733          	and	a4,s3,a2
    3e94:	02058c63          	beqz	a1,3ecc <__floatdidf+0xc8>
    3e98:	00f6f593          	andi	a1,a3,15
    3e9c:	00400813          	li	a6,4
    3ea0:	03058663          	beq	a1,a6,3ecc <__floatdidf+0xc8>
    3ea4:	00468813          	addi	a6,a3,4
    3ea8:	00d836b3          	sltu	a3,a6,a3
    3eac:	00d70733          	add	a4,a4,a3
    3eb0:	008005b7          	lui	a1,0x800
    3eb4:	00b775b3          	and	a1,a4,a1
    3eb8:	00080693          	mv	a3,a6
    3ebc:	00058863          	beqz	a1,3ecc <__floatdidf+0xc8>
    3ec0:	43f00793          	li	a5,1087
    3ec4:	00c77733          	and	a4,a4,a2
    3ec8:	40a787b3          	sub	a5,a5,a0
    3ecc:	0036d613          	srli	a2,a3,0x3
    3ed0:	01d71593          	slli	a1,a4,0x1d
    3ed4:	00971693          	slli	a3,a4,0x9
    3ed8:	00c5e9b3          	or	s3,a1,a2
    3edc:	00c6d693          	srli	a3,a3,0xc
    3ee0:	7ff7f793          	andi	a5,a5,2047
    3ee4:	0140006f          	j	3ef8 <__floatdidf+0xf4>
    3ee8:	00000913          	li	s2,0
    3eec:	00000793          	li	a5,0
    3ef0:	00000693          	li	a3,0
    3ef4:	00000993          	li	s3,0
    3ef8:	01c12083          	lw	ra,28(sp)
    3efc:	01812403          	lw	s0,24(sp)
    3f00:	01479793          	slli	a5,a5,0x14
    3f04:	01f91913          	slli	s2,s2,0x1f
    3f08:	00d7e7b3          	or	a5,a5,a3
    3f0c:	0127e7b3          	or	a5,a5,s2
    3f10:	01412483          	lw	s1,20(sp)
    3f14:	01012903          	lw	s2,16(sp)
    3f18:	00098513          	mv	a0,s3
    3f1c:	00078593          	mv	a1,a5
    3f20:	00c12983          	lw	s3,12(sp)
    3f24:	02010113          	addi	sp,sp,32
    3f28:	00008067          	ret
    3f2c:	00048513          	mv	a0,s1
    3f30:	120000ef          	jal	ra,4050 <__clzsi2>
    3f34:	00050693          	mv	a3,a0
    3f38:	43e00793          	li	a5,1086
    3f3c:	02050513          	addi	a0,a0,32
    3f40:	02a00713          	li	a4,42
    3f44:	40a787b3          	sub	a5,a5,a0
    3f48:	06a75c63          	bge	a4,a0,3fc0 <__floatdidf+0x1bc>
    3f4c:	ff568693          	addi	a3,a3,-11
    3f50:	00d496b3          	sll	a3,s1,a3
    3f54:	00c69693          	slli	a3,a3,0xc
    3f58:	7ff7f793          	andi	a5,a5,2047
    3f5c:	00c6d693          	srli	a3,a3,0xc
    3f60:	f99ff06f          	j	3ef8 <__floatdidf+0xf4>
    3f64:	00a037b3          	snez	a5,a0
    3f68:	40b00433          	neg	s0,a1
    3f6c:	40f40433          	sub	s0,s0,a5
    3f70:	40a004b3          	neg	s1,a0
    3f74:	00040993          	mv	s3,s0
    3f78:	fa040ae3          	beqz	s0,3f2c <__floatdidf+0x128>
    3f7c:	ec1ff06f          	j	3e3c <__floatdidf+0x38>
    3f80:	00800713          	li	a4,8
    3f84:	40a70733          	sub	a4,a4,a0
    3f88:	fe070613          	addi	a2,a4,-32 # ffffe0 <__stack_size+0xff7fe0>
    3f8c:	08064863          	bltz	a2,401c <__floatdidf+0x218>
    3f90:	00c45633          	srl	a2,s0,a2
    3f94:	00000713          	li	a4,0
    3f98:	01850593          	addi	a1,a0,24
    3f9c:	03850693          	addi	a3,a0,56
    3fa0:	0405ce63          	bltz	a1,3ffc <__floatdidf+0x1f8>
    3fa4:	00b495b3          	sll	a1,s1,a1
    3fa8:	00000693          	li	a3,0
    3fac:	00b6e6b3          	or	a3,a3,a1
    3fb0:	00d036b3          	snez	a3,a3
    3fb4:	00d666b3          	or	a3,a2,a3
    3fb8:	00070993          	mv	s3,a4
    3fbc:	ec9ff06f          	j	3e84 <__floatdidf+0x80>
    3fc0:	01568713          	addi	a4,a3,21
    3fc4:	02b00693          	li	a3,43
    3fc8:	40a686b3          	sub	a3,a3,a0
    3fcc:	00d4d6b3          	srl	a3,s1,a3
    3fd0:	00e41433          	sll	s0,s0,a4
    3fd4:	0086e6b3          	or	a3,a3,s0
    3fd8:	00c69693          	slli	a3,a3,0xc
    3fdc:	00e499b3          	sll	s3,s1,a4
    3fe0:	00c6d693          	srli	a3,a3,0xc
    3fe4:	7ff7f793          	andi	a5,a5,2047
    3fe8:	f11ff06f          	j	3ef8 <__floatdidf+0xf4>
    3fec:	00b00713          	li	a4,11
    3ff0:	04e50663          	beq	a0,a4,403c <__floatdidf+0x238>
    3ff4:	ff550713          	addi	a4,a0,-11
    3ff8:	fcdff06f          	j	3fc4 <__floatdidf+0x1c0>
    3ffc:	01f00593          	li	a1,31
    4000:	40d585b3          	sub	a1,a1,a3
    4004:	0014d813          	srli	a6,s1,0x1
    4008:	00b85833          	srl	a6,a6,a1
    400c:	00d415b3          	sll	a1,s0,a3
    4010:	00b865b3          	or	a1,a6,a1
    4014:	00d496b3          	sll	a3,s1,a3
    4018:	f95ff06f          	j	3fac <__floatdidf+0x1a8>
    401c:	01f00613          	li	a2,31
    4020:	40e60633          	sub	a2,a2,a4
    4024:	00141693          	slli	a3,s0,0x1
    4028:	00c696b3          	sll	a3,a3,a2
    402c:	00e4d633          	srl	a2,s1,a4
    4030:	00c6e633          	or	a2,a3,a2
    4034:	00e45733          	srl	a4,s0,a4
    4038:	f61ff06f          	j	3f98 <__floatdidf+0x194>
    403c:	00c41693          	slli	a3,s0,0xc
    4040:	00c6d693          	srli	a3,a3,0xc
    4044:	00048993          	mv	s3,s1
    4048:	43300793          	li	a5,1075
    404c:	eadff06f          	j	3ef8 <__floatdidf+0xf4>

00004050 <__clzsi2>:
    4050:	000107b7          	lui	a5,0x10
    4054:	02f57a63          	bgeu	a0,a5,4088 <__clzsi2+0x38>
    4058:	10053793          	sltiu	a5,a0,256
    405c:	0017c793          	xori	a5,a5,1
    4060:	00379793          	slli	a5,a5,0x3
    4064:	02000713          	li	a4,32
    4068:	40f70733          	sub	a4,a4,a5
    406c:	00f55533          	srl	a0,a0,a5
    4070:	1fffc797          	auipc	a5,0x1fffc
    4074:	0cc78793          	addi	a5,a5,204 # 2000013c <__clz_tab>
    4078:	00a787b3          	add	a5,a5,a0
    407c:	0007c503          	lbu	a0,0(a5)
    4080:	40a70533          	sub	a0,a4,a0
    4084:	00008067          	ret
    4088:	010007b7          	lui	a5,0x1000
    408c:	02f57463          	bgeu	a0,a5,40b4 <__clzsi2+0x64>
    4090:	01000793          	li	a5,16
    4094:	00f55533          	srl	a0,a0,a5
    4098:	1fffc797          	auipc	a5,0x1fffc
    409c:	0a478793          	addi	a5,a5,164 # 2000013c <__clz_tab>
    40a0:	00a787b3          	add	a5,a5,a0
    40a4:	0007c503          	lbu	a0,0(a5)
    40a8:	01000713          	li	a4,16
    40ac:	40a70533          	sub	a0,a4,a0
    40b0:	00008067          	ret
    40b4:	01800793          	li	a5,24
    40b8:	00f55533          	srl	a0,a0,a5
    40bc:	1fffc797          	auipc	a5,0x1fffc
    40c0:	08078793          	addi	a5,a5,128 # 2000013c <__clz_tab>
    40c4:	00a787b3          	add	a5,a5,a0
    40c8:	0007c503          	lbu	a0,0(a5)
    40cc:	00800713          	li	a4,8
    40d0:	40a70533          	sub	a0,a4,a0
    40d4:	00008067          	ret

Disassembly of section .data:

20000000 <__clz_tab-0x13c>:
20000000:	24c4                	.2byte	0x24c4
20000002:	0000                	.2byte	0x0
20000004:	2490                	.2byte	0x2490
20000006:	0000                	.2byte	0x0
20000008:	245c                	.2byte	0x245c
2000000a:	0000                	.2byte	0x0
2000000c:	2428                	.2byte	0x2428
2000000e:	0000                	.2byte	0x0
20000010:	23f4                	.2byte	0x23f4
20000012:	0000                	.2byte	0x0
20000014:	23c0                	.2byte	0x23c0
20000016:	0000                	.2byte	0x0
20000018:	238c                	.2byte	0x238c
2000001a:	0000                	.2byte	0x0
2000001c:	2358                	.2byte	0x2358
2000001e:	0000                	.2byte	0x0
20000020:	2324                	.2byte	0x2324
20000022:	0000                	.2byte	0x0
20000024:	22c0                	.2byte	0x22c0
20000026:	0000                	.2byte	0x0
20000028:	22ac                	.2byte	0x22ac
2000002a:	0000                	.2byte	0x0
2000002c:	2288                	.2byte	0x2288
2000002e:	0000                	.2byte	0x0
20000030:	2280                	.2byte	0x2280
20000032:	0000                	.2byte	0x0
20000034:	2278                	.2byte	0x2278
20000036:	0000                	.2byte	0x0
20000038:	2270                	.2byte	0x2270
2000003a:	0000                	.2byte	0x0
2000003c:	223c                	.2byte	0x223c
2000003e:	0000                	.2byte	0x0
20000040:	2510                	.2byte	0x2510
20000042:	0000                	.2byte	0x0
20000044:	21dc                	.2byte	0x21dc
20000046:	0000                	.2byte	0x0
20000048:	21a4                	.2byte	0x21a4
2000004a:	0000                	.2byte	0x0
2000004c:	216c                	.2byte	0x216c
2000004e:	0000                	.2byte	0x0
20000050:	2134                	.2byte	0x2134
20000052:	0000                	.2byte	0x0
20000054:	20fc                	.2byte	0x20fc
20000056:	0000                	.2byte	0x0
20000058:	20c4                	.2byte	0x20c4
2000005a:	0000                	.2byte	0x0
2000005c:	208c                	.2byte	0x208c
2000005e:	0000                	.2byte	0x0
20000060:	2054                	.2byte	0x2054
20000062:	0000                	.2byte	0x0
20000064:	201c                	.2byte	0x201c
20000066:	0000                	.2byte	0x0
20000068:	1fb0                	.2byte	0x1fb0
2000006a:	0000                	.2byte	0x0
2000006c:	1f84                	.2byte	0x1f84
2000006e:	0000                	.2byte	0x0
20000070:	1f48                	.2byte	0x1f48
20000072:	0000                	.2byte	0x0
20000074:	1f20                	.2byte	0x1f20
20000076:	0000                	.2byte	0x0
20000078:	1ef8                	.2byte	0x1ef8
2000007a:	0000                	.2byte	0x0
2000007c:	1ed0                	.2byte	0x1ed0
2000007e:	0000                	.2byte	0x0
20000080:	1e7c                	.2byte	0x1e7c
20000082:	0000                	.2byte	0x0
20000084:	1d8c                	.2byte	0x1d8c
20000086:	0000                	.2byte	0x0
20000088:	2a84                	.2byte	0x2a84
2000008a:	0000                	.2byte	0x0
2000008c:	2a28                	.2byte	0x2a28
2000008e:	0000                	.2byte	0x0
20000090:	29c0                	.2byte	0x29c0
20000092:	0000                	.2byte	0x0
20000094:	298c                	.2byte	0x298c
20000096:	0000                	.2byte	0x0
20000098:	2958                	.2byte	0x2958
2000009a:	0000                	.2byte	0x0
2000009c:	2924                	.2byte	0x2924
2000009e:	0000                	.2byte	0x0
200000a0:	28f0                	.2byte	0x28f0
200000a2:	0000                	.2byte	0x0
200000a4:	28bc                	.2byte	0x28bc
200000a6:	0000                	.2byte	0x0
200000a8:	2888                	.2byte	0x2888
200000aa:	0000                	.2byte	0x0
200000ac:	2820                	.2byte	0x2820
200000ae:	0000                	.2byte	0x0
200000b0:	2800                	.2byte	0x2800
200000b2:	0000                	.2byte	0x0
200000b4:	27cc                	.2byte	0x27cc
200000b6:	0000                	.2byte	0x0
200000b8:	273c                	.2byte	0x273c
200000ba:	0000                	.2byte	0x0
200000bc:	26ac                	.2byte	0x26ac
200000be:	0000                	.2byte	0x0
200000c0:	261c                	.2byte	0x261c
200000c2:	0000                	.2byte	0x0
200000c4:	258c                	.2byte	0x258c
200000c6:	0000                	.2byte	0x0
200000c8:	2558                	.2byte	0x2558
200000ca:	0000                	.2byte	0x0
200000cc:	2adc                	.2byte	0x2adc
200000ce:	0000                	.2byte	0x0
200000d0:	1dbc                	.2byte	0x1dbc
200000d2:	0000                	.2byte	0x0
200000d4:	2c2c                	.2byte	0x2c2c
200000d6:	0000                	.2byte	0x0
200000d8:	2c0c                	.2byte	0x2c0c
200000da:	0000                	.2byte	0x0
200000dc:	2bec                	.2byte	0x2bec
200000de:	0000                	.2byte	0x0
200000e0:	2bcc                	.2byte	0x2bcc
200000e2:	0000                	.2byte	0x0
200000e4:	2bac                	.2byte	0x2bac
200000e6:	0000                	.2byte	0x0
200000e8:	2b8c                	.2byte	0x2b8c
200000ea:	0000                	.2byte	0x0
200000ec:	2b6c                	.2byte	0x2b6c
200000ee:	0000                	.2byte	0x0
200000f0:	2b4c                	.2byte	0x2b4c
200000f2:	0000                	.2byte	0x0
200000f4:	2b2c                	.2byte	0x2b2c
200000f6:	0000                	.2byte	0x0
200000f8:	2b08                	.2byte	0x2b08
200000fa:	0000                	.2byte	0x0
200000fc:	3070                	.2byte	0x3070
200000fe:	e000                	.2byte	0xe000
20000100:	2eb4                	.2byte	0x2eb4
20000102:	e000                	.2byte	0xe000
20000104:	2e60                	.2byte	0x2e60
20000106:	e000                	.2byte	0xe000
20000108:	2fa4                	.2byte	0x2fa4
2000010a:	e000                	.2byte	0xe000
2000010c:	2e60                	.2byte	0x2e60
2000010e:	e000                	.2byte	0xe000
20000110:	2ec4                	.2byte	0x2ec4
20000112:	e000                	.2byte	0xe000
20000114:	2e60                	.2byte	0x2e60
20000116:	e000                	.2byte	0xe000
20000118:	2fa4                	.2byte	0x2fa4
2000011a:	e000                	.2byte	0xe000
2000011c:	2eb4                	.2byte	0x2eb4
2000011e:	e000                	.2byte	0xe000
20000120:	2eb4                	.2byte	0x2eb4
20000122:	e000                	.2byte	0xe000
20000124:	2ec4                	.2byte	0x2ec4
20000126:	e000                	.2byte	0xe000
20000128:	2fa4                	.2byte	0x2fa4
2000012a:	e000                	.2byte	0xe000
2000012c:	3014                	.2byte	0x3014
2000012e:	e000                	.2byte	0xe000
20000130:	3014                	.2byte	0x3014
20000132:	e000                	.2byte	0xe000
20000134:	3014                	.2byte	0x3014
20000136:	e000                	.2byte	0xe000
20000138:	2ec4                	.2byte	0x2ec4
2000013a:	e000                	.2byte	0xe000

2000013c <__clz_tab>:
2000013c:	0100                	.2byte	0x100
2000013e:	0202                	.2byte	0x202
20000140:	03030303          	lb	t1,48(t1)
20000144:	0404                	.2byte	0x404
20000146:	0404                	.2byte	0x404
20000148:	0404                	.2byte	0x404
2000014a:	0404                	.2byte	0x404
2000014c:	0505                	.2byte	0x505
2000014e:	0505                	.2byte	0x505
20000150:	0505                	.2byte	0x505
20000152:	0505                	.2byte	0x505
20000154:	0505                	.2byte	0x505
20000156:	0505                	.2byte	0x505
20000158:	0505                	.2byte	0x505
2000015a:	0505                	.2byte	0x505
2000015c:	0606                	.2byte	0x606
2000015e:	0606                	.2byte	0x606
20000160:	0606                	.2byte	0x606
20000162:	0606                	.2byte	0x606
20000164:	0606                	.2byte	0x606
20000166:	0606                	.2byte	0x606
20000168:	0606                	.2byte	0x606
2000016a:	0606                	.2byte	0x606
2000016c:	0606                	.2byte	0x606
2000016e:	0606                	.2byte	0x606
20000170:	0606                	.2byte	0x606
20000172:	0606                	.2byte	0x606
20000174:	0606                	.2byte	0x606
20000176:	0606                	.2byte	0x606
20000178:	0606                	.2byte	0x606
2000017a:	0606                	.2byte	0x606
2000017c:	07070707          	.4byte	0x7070707
20000180:	07070707          	.4byte	0x7070707
20000184:	07070707          	.4byte	0x7070707
20000188:	07070707          	.4byte	0x7070707
2000018c:	07070707          	.4byte	0x7070707
20000190:	07070707          	.4byte	0x7070707
20000194:	07070707          	.4byte	0x7070707
20000198:	07070707          	.4byte	0x7070707
2000019c:	07070707          	.4byte	0x7070707
200001a0:	07070707          	.4byte	0x7070707
200001a4:	07070707          	.4byte	0x7070707
200001a8:	07070707          	.4byte	0x7070707
200001ac:	07070707          	.4byte	0x7070707
200001b0:	07070707          	.4byte	0x7070707
200001b4:	07070707          	.4byte	0x7070707
200001b8:	07070707          	.4byte	0x7070707
200001bc:	0808                	.2byte	0x808
200001be:	0808                	.2byte	0x808
200001c0:	0808                	.2byte	0x808
200001c2:	0808                	.2byte	0x808
200001c4:	0808                	.2byte	0x808
200001c6:	0808                	.2byte	0x808
200001c8:	0808                	.2byte	0x808
200001ca:	0808                	.2byte	0x808
200001cc:	0808                	.2byte	0x808
200001ce:	0808                	.2byte	0x808
200001d0:	0808                	.2byte	0x808
200001d2:	0808                	.2byte	0x808
200001d4:	0808                	.2byte	0x808
200001d6:	0808                	.2byte	0x808
200001d8:	0808                	.2byte	0x808
200001da:	0808                	.2byte	0x808
200001dc:	0808                	.2byte	0x808
200001de:	0808                	.2byte	0x808
200001e0:	0808                	.2byte	0x808
200001e2:	0808                	.2byte	0x808
200001e4:	0808                	.2byte	0x808
200001e6:	0808                	.2byte	0x808
200001e8:	0808                	.2byte	0x808
200001ea:	0808                	.2byte	0x808
200001ec:	0808                	.2byte	0x808
200001ee:	0808                	.2byte	0x808
200001f0:	0808                	.2byte	0x808
200001f2:	0808                	.2byte	0x808
200001f4:	0808                	.2byte	0x808
200001f6:	0808                	.2byte	0x808
200001f8:	0808                	.2byte	0x808
200001fa:	0808                	.2byte	0x808
200001fc:	0808                	.2byte	0x808
200001fe:	0808                	.2byte	0x808
20000200:	0808                	.2byte	0x808
20000202:	0808                	.2byte	0x808
20000204:	0808                	.2byte	0x808
20000206:	0808                	.2byte	0x808
20000208:	0808                	.2byte	0x808
2000020a:	0808                	.2byte	0x808
2000020c:	0808                	.2byte	0x808
2000020e:	0808                	.2byte	0x808
20000210:	0808                	.2byte	0x808
20000212:	0808                	.2byte	0x808
20000214:	0808                	.2byte	0x808
20000216:	0808                	.2byte	0x808
20000218:	0808                	.2byte	0x808
2000021a:	0808                	.2byte	0x808
2000021c:	0808                	.2byte	0x808
2000021e:	0808                	.2byte	0x808
20000220:	0808                	.2byte	0x808
20000222:	0808                	.2byte	0x808
20000224:	0808                	.2byte	0x808
20000226:	0808                	.2byte	0x808
20000228:	0808                	.2byte	0x808
2000022a:	0808                	.2byte	0x808
2000022c:	0808                	.2byte	0x808
2000022e:	0808                	.2byte	0x808
20000230:	0808                	.2byte	0x808
20000232:	0808                	.2byte	0x808
20000234:	0808                	.2byte	0x808
20000236:	0808                	.2byte	0x808
20000238:	0808                	.2byte	0x808
2000023a:	0808                	.2byte	0x808
2000023c:	0000                	.2byte	0x0
2000023e:	0000                	.2byte	0x0
20000240:	9998                	.2byte	0x9998
20000242:	9999                	.2byte	0x9999
20000244:	9999                	.2byte	0x9999
20000246:	1999                	.2byte	0x1999

Disassembly of section .bss:

20000248 <spec_flag.0>:
	...

20000249 <point_flag.1>:
20000249:	0000                	.2byte	0x0
	...

2000024c <curr_state.2>:
2000024c:	0000                	.2byte	0x0
	...

20000250 <execute_flag.3>:
20000250:	0000                	.2byte	0x0
	...

Disassembly of section .stack:

20008000 <__freertos_irq_stack_top-0x8000>:
	...

Disassembly of section .riscv.attributes:

00000000 <.riscv.attributes>:
   0:	2041                	.2byte	0x2041
   2:	0000                	.2byte	0x0
   4:	7200                	.2byte	0x7200
   6:	7369                	.2byte	0x7369
   8:	01007663          	bgeu	zero,a6,14 <_start+0x14>
   c:	0016                	.2byte	0x16
   e:	0000                	.2byte	0x0
  10:	1004                	.2byte	0x1004
  12:	7205                	.2byte	0x7205
  14:	3376                	.2byte	0x3376
  16:	6932                	.2byte	0x6932
  18:	7032                	.2byte	0x7032
  1a:	5f31                	.2byte	0x5f31
  1c:	326d                	.2byte	0x326d
  1e:	3070                	.2byte	0x3070
	...

Disassembly of section .comment:

00000000 <.comment>:
   0:	3a434347          	.4byte	0x3a434347
   4:	2820                	.2byte	0x2820
   6:	5078                	.2byte	0x5078
   8:	6361                	.2byte	0x6361
   a:	4e47206b          	.4byte	0x4e47206b
   e:	2055                	.2byte	0x2055
  10:	4952                	.2byte	0x4952
  12:	562d4353          	.4byte	0x562d4353
  16:	4520                	.2byte	0x4520
  18:	626d                	.2byte	0x626d
  1a:	6465                	.2byte	0x6465
  1c:	6564                	.2byte	0x6564
  1e:	2064                	.2byte	0x2064
  20:	20434347          	.4byte	0x20434347
  24:	3878                	.2byte	0x3878
  26:	5f36                	.2byte	0x5f36
  28:	3436                	.2byte	0x3436
  2a:	2029                	.2byte	0x2029
  2c:	3231                	.2byte	0x3231
  2e:	322e                	.2byte	0x322e
  30:	302e                	.2byte	0x302e
	...
