
test.out:     file format elf32-littleriscv


Disassembly of section .text:

00010094 <exit>:
   10094:	ff010113          	addi	sp,sp,-16
   10098:	00000593          	li	a1,0
   1009c:	00812423          	sw	s0,8(sp)
   100a0:	00112623          	sw	ra,12(sp)
   100a4:	00050413          	mv	s0,a0
   100a8:	420000ef          	jal	ra,104c8 <__call_exitprocs>
   100ac:	c281a503          	lw	a0,-984(gp) # 11aa0 <_global_impure_ptr>
   100b0:	03c52783          	lw	a5,60(a0)
   100b4:	00078463          	beqz	a5,100bc <exit+0x28>
   100b8:	000780e7          	jalr	a5
   100bc:	00040513          	mv	a0,s0
   100c0:	570000ef          	jal	ra,10630 <_exit>

000100c4 <register_fini>:
   100c4:	00000793          	li	a5,0
   100c8:	00078863          	beqz	a5,100d8 <register_fini+0x14>
   100cc:	00000517          	auipc	a0,0x0
   100d0:	14c50513          	addi	a0,a0,332 # 10218 <__libc_fini_array>
   100d4:	1300006f          	j	10204 <atexit>
   100d8:	00008067          	ret

000100dc <_start>:
   100dc:	00002197          	auipc	gp,0x2
   100e0:	d9c18193          	addi	gp,gp,-612 # 11e78 <__global_pointer$>
   100e4:	c3818513          	addi	a0,gp,-968 # 11ab0 <completed.1>
   100e8:	c7818613          	addi	a2,gp,-904 # 11af0 <__BSS_END__>
   100ec:	40a60633          	sub	a2,a2,a0
   100f0:	00000593          	li	a1,0
   100f4:	214000ef          	jal	ra,10308 <memset>
   100f8:	00000517          	auipc	a0,0x0
   100fc:	12050513          	addi	a0,a0,288 # 10218 <__libc_fini_array>
   10100:	104000ef          	jal	ra,10204 <atexit>
   10104:	170000ef          	jal	ra,10274 <__libc_init_array>
   10108:	00012503          	lw	a0,0(sp)
   1010c:	00410593          	addi	a1,sp,4
   10110:	00000613          	li	a2,0
   10114:	070000ef          	jal	ra,10184 <main>
   10118:	f7dff06f          	j	10094 <exit>

0001011c <__do_global_dtors_aux>:
   1011c:	ff010113          	addi	sp,sp,-16
   10120:	00812423          	sw	s0,8(sp)
   10124:	c3818413          	addi	s0,gp,-968 # 11ab0 <completed.1>
   10128:	00044783          	lbu	a5,0(s0)
   1012c:	00112623          	sw	ra,12(sp)
   10130:	02079263          	bnez	a5,10154 <__do_global_dtors_aux+0x38>
   10134:	00000793          	li	a5,0
   10138:	00078a63          	beqz	a5,1014c <__do_global_dtors_aux+0x30>
   1013c:	00001517          	auipc	a0,0x1
   10140:	52c50513          	addi	a0,a0,1324 # 11668 <__FRAME_END__>
   10144:	00000097          	auipc	ra,0x0
   10148:	000000e7          	jalr	zero # 0 <exit-0x10094>
   1014c:	00100793          	li	a5,1
   10150:	00f40023          	sb	a5,0(s0)
   10154:	00c12083          	lw	ra,12(sp)
   10158:	00812403          	lw	s0,8(sp)
   1015c:	01010113          	addi	sp,sp,16
   10160:	00008067          	ret

00010164 <frame_dummy>:
   10164:	00000793          	li	a5,0
   10168:	00078c63          	beqz	a5,10180 <frame_dummy+0x1c>
   1016c:	c6018593          	addi	a1,gp,-928 # 11ad8 <object.0>
   10170:	00001517          	auipc	a0,0x1
   10174:	4f850513          	addi	a0,a0,1272 # 11668 <__FRAME_END__>
   10178:	00000317          	auipc	t1,0x0
   1017c:	00000067          	jr	zero # 0 <exit-0x10094>
   10180:	00008067          	ret

00010184 <main>:
   10184:	fd010113          	addi	sp,sp,-48
   10188:	02812623          	sw	s0,44(sp)
   1018c:	03010413          	addi	s0,sp,48
   10190:	02800793          	li	a5,40
   10194:	fef42623          	sw	a5,-20(s0)
   10198:	01e00793          	li	a5,30
   1019c:	fef42423          	sw	a5,-24(s0)
   101a0:	fec42703          	lw	a4,-20(s0)
   101a4:	fe842783          	lw	a5,-24(s0)
   101a8:	00f707b3          	add	a5,a4,a5
   101ac:	fef42223          	sw	a5,-28(s0)
   101b0:	fec42703          	lw	a4,-20(s0)
   101b4:	fe842783          	lw	a5,-24(s0)
   101b8:	40f707b3          	sub	a5,a4,a5
   101bc:	fef42023          	sw	a5,-32(s0)
   101c0:	fec42703          	lw	a4,-20(s0)
   101c4:	fe842783          	lw	a5,-24(s0)
   101c8:	02f707b3          	mul	a5,a4,a5
   101cc:	fcf42e23          	sw	a5,-36(s0)
   101d0:	fec42703          	lw	a4,-20(s0)
   101d4:	fe842783          	lw	a5,-24(s0)
   101d8:	02f747b3          	div	a5,a4,a5
   101dc:	fcf42c23          	sw	a5,-40(s0)
   101e0:	fec42703          	lw	a4,-20(s0)
   101e4:	fe842783          	lw	a5,-24(s0)
   101e8:	02f767b3          	rem	a5,a4,a5
   101ec:	fcf42a23          	sw	a5,-44(s0)
   101f0:	00000793          	li	a5,0
   101f4:	00078513          	mv	a0,a5
   101f8:	02c12403          	lw	s0,44(sp)
   101fc:	03010113          	addi	sp,sp,48
   10200:	00008067          	ret

00010204 <atexit>:
   10204:	00050593          	mv	a1,a0
   10208:	00000693          	li	a3,0
   1020c:	00000613          	li	a2,0
   10210:	00000513          	li	a0,0
   10214:	1d00006f          	j	103e4 <__register_exitproc>

00010218 <__libc_fini_array>:
   10218:	ff010113          	addi	sp,sp,-16
   1021c:	00812423          	sw	s0,8(sp)
   10220:	00001797          	auipc	a5,0x1
   10224:	45478793          	addi	a5,a5,1108 # 11674 <__do_global_dtors_aux_fini_array_entry>
   10228:	00001417          	auipc	s0,0x1
   1022c:	45040413          	addi	s0,s0,1104 # 11678 <impure_data>
   10230:	40f40433          	sub	s0,s0,a5
   10234:	00912223          	sw	s1,4(sp)
   10238:	00112623          	sw	ra,12(sp)
   1023c:	40245493          	srai	s1,s0,0x2
   10240:	02048063          	beqz	s1,10260 <__libc_fini_array+0x48>
   10244:	ffc40413          	addi	s0,s0,-4
   10248:	00f40433          	add	s0,s0,a5
   1024c:	00042783          	lw	a5,0(s0)
   10250:	fff48493          	addi	s1,s1,-1
   10254:	ffc40413          	addi	s0,s0,-4
   10258:	000780e7          	jalr	a5
   1025c:	fe0498e3          	bnez	s1,1024c <__libc_fini_array+0x34>
   10260:	00c12083          	lw	ra,12(sp)
   10264:	00812403          	lw	s0,8(sp)
   10268:	00412483          	lw	s1,4(sp)
   1026c:	01010113          	addi	sp,sp,16
   10270:	00008067          	ret

00010274 <__libc_init_array>:
   10274:	ff010113          	addi	sp,sp,-16
   10278:	00812423          	sw	s0,8(sp)
   1027c:	01212023          	sw	s2,0(sp)
   10280:	00001797          	auipc	a5,0x1
   10284:	3ec78793          	addi	a5,a5,1004 # 1166c <__init_array_start>
   10288:	00001417          	auipc	s0,0x1
   1028c:	3e440413          	addi	s0,s0,996 # 1166c <__init_array_start>
   10290:	00112623          	sw	ra,12(sp)
   10294:	00912223          	sw	s1,4(sp)
   10298:	40878933          	sub	s2,a5,s0
   1029c:	02878063          	beq	a5,s0,102bc <__libc_init_array+0x48>
   102a0:	40295913          	srai	s2,s2,0x2
   102a4:	00000493          	li	s1,0
   102a8:	00042783          	lw	a5,0(s0)
   102ac:	00148493          	addi	s1,s1,1
   102b0:	00440413          	addi	s0,s0,4
   102b4:	000780e7          	jalr	a5
   102b8:	ff24e8e3          	bltu	s1,s2,102a8 <__libc_init_array+0x34>
   102bc:	00001797          	auipc	a5,0x1
   102c0:	3b878793          	addi	a5,a5,952 # 11674 <__do_global_dtors_aux_fini_array_entry>
   102c4:	00001417          	auipc	s0,0x1
   102c8:	3a840413          	addi	s0,s0,936 # 1166c <__init_array_start>
   102cc:	40878933          	sub	s2,a5,s0
   102d0:	40295913          	srai	s2,s2,0x2
   102d4:	00878e63          	beq	a5,s0,102f0 <__libc_init_array+0x7c>
   102d8:	00000493          	li	s1,0
   102dc:	00042783          	lw	a5,0(s0)
   102e0:	00148493          	addi	s1,s1,1
   102e4:	00440413          	addi	s0,s0,4
   102e8:	000780e7          	jalr	a5
   102ec:	ff24e8e3          	bltu	s1,s2,102dc <__libc_init_array+0x68>
   102f0:	00c12083          	lw	ra,12(sp)
   102f4:	00812403          	lw	s0,8(sp)
   102f8:	00412483          	lw	s1,4(sp)
   102fc:	00012903          	lw	s2,0(sp)
   10300:	01010113          	addi	sp,sp,16
   10304:	00008067          	ret

00010308 <memset>:
   10308:	00f00313          	li	t1,15
   1030c:	00050713          	mv	a4,a0
   10310:	02c37e63          	bgeu	t1,a2,1034c <memset+0x44>
   10314:	00f77793          	andi	a5,a4,15
   10318:	0a079063          	bnez	a5,103b8 <memset+0xb0>
   1031c:	08059263          	bnez	a1,103a0 <memset+0x98>
   10320:	ff067693          	andi	a3,a2,-16
   10324:	00f67613          	andi	a2,a2,15
   10328:	00e686b3          	add	a3,a3,a4
   1032c:	00b72023          	sw	a1,0(a4)
   10330:	00b72223          	sw	a1,4(a4)
   10334:	00b72423          	sw	a1,8(a4)
   10338:	00b72623          	sw	a1,12(a4)
   1033c:	01070713          	addi	a4,a4,16
   10340:	fed766e3          	bltu	a4,a3,1032c <memset+0x24>
   10344:	00061463          	bnez	a2,1034c <memset+0x44>
   10348:	00008067          	ret
   1034c:	40c306b3          	sub	a3,t1,a2
   10350:	00269693          	slli	a3,a3,0x2
   10354:	00000297          	auipc	t0,0x0
   10358:	005686b3          	add	a3,a3,t0
   1035c:	00c68067          	jr	12(a3)
   10360:	00b70723          	sb	a1,14(a4)
   10364:	00b706a3          	sb	a1,13(a4)
   10368:	00b70623          	sb	a1,12(a4)
   1036c:	00b705a3          	sb	a1,11(a4)
   10370:	00b70523          	sb	a1,10(a4)
   10374:	00b704a3          	sb	a1,9(a4)
   10378:	00b70423          	sb	a1,8(a4)
   1037c:	00b703a3          	sb	a1,7(a4)
   10380:	00b70323          	sb	a1,6(a4)
   10384:	00b702a3          	sb	a1,5(a4)
   10388:	00b70223          	sb	a1,4(a4)
   1038c:	00b701a3          	sb	a1,3(a4)
   10390:	00b70123          	sb	a1,2(a4)
   10394:	00b700a3          	sb	a1,1(a4)
   10398:	00b70023          	sb	a1,0(a4)
   1039c:	00008067          	ret
   103a0:	0ff5f593          	zext.b	a1,a1
   103a4:	00859693          	slli	a3,a1,0x8
   103a8:	00d5e5b3          	or	a1,a1,a3
   103ac:	01059693          	slli	a3,a1,0x10
   103b0:	00d5e5b3          	or	a1,a1,a3
   103b4:	f6dff06f          	j	10320 <memset+0x18>
   103b8:	00279693          	slli	a3,a5,0x2
   103bc:	00000297          	auipc	t0,0x0
   103c0:	005686b3          	add	a3,a3,t0
   103c4:	00008293          	mv	t0,ra
   103c8:	fa0680e7          	jalr	-96(a3)
   103cc:	00028093          	mv	ra,t0
   103d0:	ff078793          	addi	a5,a5,-16
   103d4:	40f70733          	sub	a4,a4,a5
   103d8:	00f60633          	add	a2,a2,a5
   103dc:	f6c378e3          	bgeu	t1,a2,1034c <memset+0x44>
   103e0:	f3dff06f          	j	1031c <memset+0x14>

000103e4 <__register_exitproc>:
   103e4:	fe010113          	addi	sp,sp,-32
   103e8:	01212823          	sw	s2,16(sp)
   103ec:	c3418913          	addi	s2,gp,-972 # 11aac <__atexit_recursive_mutex>
   103f0:	00812c23          	sw	s0,24(sp)
   103f4:	00050413          	mv	s0,a0
   103f8:	00092503          	lw	a0,0(s2)
   103fc:	00912a23          	sw	s1,20(sp)
   10400:	01312623          	sw	s3,12(sp)
   10404:	01412423          	sw	s4,8(sp)
   10408:	00112e23          	sw	ra,28(sp)
   1040c:	00058493          	mv	s1,a1
   10410:	00060a13          	mv	s4,a2
   10414:	00068993          	mv	s3,a3
   10418:	1fc000ef          	jal	ra,10614 <__retarget_lock_acquire_recursive>
   1041c:	c281a703          	lw	a4,-984(gp) # 11aa0 <_global_impure_ptr>
   10420:	14872783          	lw	a5,328(a4)
   10424:	08078663          	beqz	a5,104b0 <__register_exitproc+0xcc>
   10428:	0047a703          	lw	a4,4(a5)
   1042c:	01f00593          	li	a1,31
   10430:	00092503          	lw	a0,0(s2)
   10434:	08e5c463          	blt	a1,a4,104bc <__register_exitproc+0xd8>
   10438:	00271593          	slli	a1,a4,0x2
   1043c:	02041e63          	bnez	s0,10478 <__register_exitproc+0x94>
   10440:	00170713          	addi	a4,a4,1
   10444:	00e7a223          	sw	a4,4(a5)
   10448:	00b787b3          	add	a5,a5,a1
   1044c:	0097a423          	sw	s1,8(a5)
   10450:	1dc000ef          	jal	ra,1062c <__retarget_lock_release_recursive>
   10454:	00000513          	li	a0,0
   10458:	01c12083          	lw	ra,28(sp)
   1045c:	01812403          	lw	s0,24(sp)
   10460:	01412483          	lw	s1,20(sp)
   10464:	01012903          	lw	s2,16(sp)
   10468:	00c12983          	lw	s3,12(sp)
   1046c:	00812a03          	lw	s4,8(sp)
   10470:	02010113          	addi	sp,sp,32
   10474:	00008067          	ret
   10478:	00b78833          	add	a6,a5,a1
   1047c:	09482423          	sw	s4,136(a6)
   10480:	1887a683          	lw	a3,392(a5)
   10484:	00100613          	li	a2,1
   10488:	00e61633          	sll	a2,a2,a4
   1048c:	00c6e6b3          	or	a3,a3,a2
   10490:	18d7a423          	sw	a3,392(a5)
   10494:	11382423          	sw	s3,264(a6)
   10498:	00200693          	li	a3,2
   1049c:	fad412e3          	bne	s0,a3,10440 <__register_exitproc+0x5c>
   104a0:	18c7a683          	lw	a3,396(a5)
   104a4:	00c6e6b3          	or	a3,a3,a2
   104a8:	18d7a623          	sw	a3,396(a5)
   104ac:	f95ff06f          	j	10440 <__register_exitproc+0x5c>
   104b0:	14c70793          	addi	a5,a4,332
   104b4:	14f72423          	sw	a5,328(a4)
   104b8:	f71ff06f          	j	10428 <__register_exitproc+0x44>
   104bc:	170000ef          	jal	ra,1062c <__retarget_lock_release_recursive>
   104c0:	fff00513          	li	a0,-1
   104c4:	f95ff06f          	j	10458 <__register_exitproc+0x74>

000104c8 <__call_exitprocs>:
   104c8:	fd010113          	addi	sp,sp,-48
   104cc:	01712623          	sw	s7,12(sp)
   104d0:	c3418b93          	addi	s7,gp,-972 # 11aac <__atexit_recursive_mutex>
   104d4:	01612823          	sw	s6,16(sp)
   104d8:	00050b13          	mv	s6,a0
   104dc:	000ba503          	lw	a0,0(s7)
   104e0:	03212023          	sw	s2,32(sp)
   104e4:	01312e23          	sw	s3,28(sp)
   104e8:	01412c23          	sw	s4,24(sp)
   104ec:	01512a23          	sw	s5,20(sp)
   104f0:	01812423          	sw	s8,8(sp)
   104f4:	02112623          	sw	ra,44(sp)
   104f8:	02812423          	sw	s0,40(sp)
   104fc:	02912223          	sw	s1,36(sp)
   10500:	01912223          	sw	s9,4(sp)
   10504:	00058c13          	mv	s8,a1
   10508:	10c000ef          	jal	ra,10614 <__retarget_lock_acquire_recursive>
   1050c:	c281aa03          	lw	s4,-984(gp) # 11aa0 <_global_impure_ptr>
   10510:	148a2903          	lw	s2,328(s4)
   10514:	00100a93          	li	s5,1
   10518:	fff00993          	li	s3,-1
   1051c:	02090863          	beqz	s2,1054c <__call_exitprocs+0x84>
   10520:	00492483          	lw	s1,4(s2)
   10524:	fff48413          	addi	s0,s1,-1
   10528:	02044263          	bltz	s0,1054c <__call_exitprocs+0x84>
   1052c:	00249493          	slli	s1,s1,0x2
   10530:	009904b3          	add	s1,s2,s1
   10534:	040c0863          	beqz	s8,10584 <__call_exitprocs+0xbc>
   10538:	1044a783          	lw	a5,260(s1)
   1053c:	05878463          	beq	a5,s8,10584 <__call_exitprocs+0xbc>
   10540:	fff40413          	addi	s0,s0,-1
   10544:	ffc48493          	addi	s1,s1,-4
   10548:	ff3416e3          	bne	s0,s3,10534 <__call_exitprocs+0x6c>
   1054c:	02812403          	lw	s0,40(sp)
   10550:	000ba503          	lw	a0,0(s7)
   10554:	02c12083          	lw	ra,44(sp)
   10558:	02412483          	lw	s1,36(sp)
   1055c:	02012903          	lw	s2,32(sp)
   10560:	01c12983          	lw	s3,28(sp)
   10564:	01812a03          	lw	s4,24(sp)
   10568:	01412a83          	lw	s5,20(sp)
   1056c:	01012b03          	lw	s6,16(sp)
   10570:	00c12b83          	lw	s7,12(sp)
   10574:	00812c03          	lw	s8,8(sp)
   10578:	00412c83          	lw	s9,4(sp)
   1057c:	03010113          	addi	sp,sp,48
   10580:	0ac0006f          	j	1062c <__retarget_lock_release_recursive>
   10584:	00492783          	lw	a5,4(s2)
   10588:	0044a683          	lw	a3,4(s1)
   1058c:	fff78793          	addi	a5,a5,-1
   10590:	04878e63          	beq	a5,s0,105ec <__call_exitprocs+0x124>
   10594:	0004a223          	sw	zero,4(s1)
   10598:	fa0684e3          	beqz	a3,10540 <__call_exitprocs+0x78>
   1059c:	18892783          	lw	a5,392(s2)
   105a0:	008a9733          	sll	a4,s5,s0
   105a4:	00492c83          	lw	s9,4(s2)
   105a8:	00f777b3          	and	a5,a4,a5
   105ac:	02079263          	bnez	a5,105d0 <__call_exitprocs+0x108>
   105b0:	000680e7          	jalr	a3
   105b4:	00492703          	lw	a4,4(s2)
   105b8:	148a2783          	lw	a5,328(s4)
   105bc:	01971463          	bne	a4,s9,105c4 <__call_exitprocs+0xfc>
   105c0:	f92780e3          	beq	a5,s2,10540 <__call_exitprocs+0x78>
   105c4:	f80784e3          	beqz	a5,1054c <__call_exitprocs+0x84>
   105c8:	00078913          	mv	s2,a5
   105cc:	f55ff06f          	j	10520 <__call_exitprocs+0x58>
   105d0:	18c92783          	lw	a5,396(s2)
   105d4:	0844a583          	lw	a1,132(s1)
   105d8:	00f77733          	and	a4,a4,a5
   105dc:	00071c63          	bnez	a4,105f4 <__call_exitprocs+0x12c>
   105e0:	000b0513          	mv	a0,s6
   105e4:	000680e7          	jalr	a3
   105e8:	fcdff06f          	j	105b4 <__call_exitprocs+0xec>
   105ec:	00892223          	sw	s0,4(s2)
   105f0:	fa9ff06f          	j	10598 <__call_exitprocs+0xd0>
   105f4:	00058513          	mv	a0,a1
   105f8:	000680e7          	jalr	a3
   105fc:	fb9ff06f          	j	105b4 <__call_exitprocs+0xec>

00010600 <__retarget_lock_init>:
   10600:	00008067          	ret

00010604 <__retarget_lock_init_recursive>:
   10604:	00008067          	ret

00010608 <__retarget_lock_close>:
   10608:	00008067          	ret

0001060c <__retarget_lock_close_recursive>:
   1060c:	00008067          	ret

00010610 <__retarget_lock_acquire>:
   10610:	00008067          	ret

00010614 <__retarget_lock_acquire_recursive>:
   10614:	00008067          	ret

00010618 <__retarget_lock_try_acquire>:
   10618:	00100513          	li	a0,1
   1061c:	00008067          	ret

00010620 <__retarget_lock_try_acquire_recursive>:
   10620:	00100513          	li	a0,1
   10624:	00008067          	ret

00010628 <__retarget_lock_release>:
   10628:	00008067          	ret

0001062c <__retarget_lock_release_recursive>:
   1062c:	00008067          	ret

00010630 <_exit>:
   10630:	05d00893          	li	a7,93
   10634:	00000073          	ecall
   10638:	00054463          	bltz	a0,10640 <_exit+0x10>
   1063c:	0000006f          	j	1063c <_exit+0xc>
   10640:	ff010113          	addi	sp,sp,-16
   10644:	00812423          	sw	s0,8(sp)
   10648:	00050413          	mv	s0,a0
   1064c:	00112623          	sw	ra,12(sp)
   10650:	40800433          	neg	s0,s0
   10654:	00c000ef          	jal	ra,10660 <__errno>
   10658:	00852023          	sw	s0,0(a0)
   1065c:	0000006f          	j	1065c <_exit+0x2c>

00010660 <__errno>:
   10660:	c301a503          	lw	a0,-976(gp) # 11aa8 <_impure_ptr>
   10664:	00008067          	ret

Disassembly of section .eh_frame:

00011668 <__FRAME_END__>:
   11668:	0000                	.2byte	0x0
	...

Disassembly of section .init_array:

0001166c <__init_array_start>:
   1166c:	00c4                	.2byte	0xc4
   1166e:	0001                	.2byte	0x1

00011670 <__frame_dummy_init_array_entry>:
   11670:	0164                	.2byte	0x164
   11672:	0001                	.2byte	0x1

Disassembly of section .fini_array:

00011674 <__do_global_dtors_aux_fini_array_entry>:
   11674:	011c                	.2byte	0x11c
   11676:	0001                	.2byte	0x1

Disassembly of section .data:

00011678 <impure_data>:
   11678:	0000                	.2byte	0x0
   1167a:	0000                	.2byte	0x0
   1167c:	1964                	.2byte	0x1964
   1167e:	0001                	.2byte	0x1
   11680:	19cc                	.2byte	0x19cc
   11682:	0001                	.2byte	0x1
   11684:	1a34                	.2byte	0x1a34
   11686:	0001                	.2byte	0x1
	...
   11720:	0001                	.2byte	0x1
   11722:	0000                	.2byte	0x0
   11724:	0000                	.2byte	0x0
   11726:	0000                	.2byte	0x0
   11728:	330e                	.2byte	0x330e
   1172a:	abcd                	.2byte	0xabcd
   1172c:	1234                	.2byte	0x1234
   1172e:	e66d                	.2byte	0xe66d
   11730:	deec                	.2byte	0xdeec
   11732:	0005                	.2byte	0x5
   11734:	0000000b          	.4byte	0xb
	...

Disassembly of section .sdata:

00011aa0 <_global_impure_ptr>:
   11aa0:	1678                	.2byte	0x1678
   11aa2:	0001                	.2byte	0x1

00011aa4 <__dso_handle>:
   11aa4:	0000                	.2byte	0x0
	...

00011aa8 <_impure_ptr>:
   11aa8:	1678                	.2byte	0x1678
   11aaa:	0001                	.2byte	0x1

00011aac <__atexit_recursive_mutex>:
   11aac:	1acc                	.2byte	0x1acc
   11aae:	0001                	.2byte	0x1

Disassembly of section .sbss:

00011ab0 <completed.1>:
   11ab0:	0000                	.2byte	0x0
	...

00011ab4 <__lock___arc4random_mutex>:
   11ab4:	0000                	.2byte	0x0
	...

00011ab8 <__lock___dd_hash_mutex>:
   11ab8:	0000                	.2byte	0x0
	...

00011abc <__lock___tz_mutex>:
   11abc:	0000                	.2byte	0x0
	...

00011ac0 <__lock___env_recursive_mutex>:
   11ac0:	0000                	.2byte	0x0
	...

00011ac4 <__lock___malloc_recursive_mutex>:
   11ac4:	0000                	.2byte	0x0
	...

00011ac8 <__lock___at_quick_exit_mutex>:
   11ac8:	0000                	.2byte	0x0
	...

00011acc <__lock___atexit_recursive_mutex>:
   11acc:	0000                	.2byte	0x0
	...

00011ad0 <__lock___sfp_recursive_mutex>:
   11ad0:	0000                	.2byte	0x0
	...

00011ad4 <__lock___sinit_recursive_mutex>:
	...

Disassembly of section .bss:

00011ad8 <object.0>:
	...

Disassembly of section .comment:

00000000 <.comment>:
   0:	3a434347          	.4byte	0x3a434347
   4:	2820                	.2byte	0x2820
   6:	5078                	.2byte	0x5078
   8:	6361                	.2byte	0x6361
   a:	4e47206b          	.4byte	0x4e47206b
   e:	2055                	.2byte	0x2055
  10:	4952                	.2byte	0x4952
  12:	562d4353          	.4byte	0x562d4353
  16:	4520                	.2byte	0x4520
  18:	626d                	.2byte	0x626d
  1a:	6465                	.2byte	0x6465
  1c:	6564                	.2byte	0x6564
  1e:	2064                	.2byte	0x2064
  20:	20434347          	.4byte	0x20434347
  24:	3878                	.2byte	0x3878
  26:	5f36                	.2byte	0x5f36
  28:	3436                	.2byte	0x3436
  2a:	2029                	.2byte	0x2029
  2c:	3231                	.2byte	0x3231
  2e:	322e                	.2byte	0x322e
  30:	302e                	.2byte	0x302e
	...

Disassembly of section .riscv.attributes:

00000000 <.riscv.attributes>:
   0:	2041                	.2byte	0x2041
   2:	0000                	.2byte	0x0
   4:	7200                	.2byte	0x7200
   6:	7369                	.2byte	0x7369
   8:	01007663          	bgeu	zero,a6,14 <exit-0x10080>
   c:	0016                	.2byte	0x16
   e:	0000                	.2byte	0x0
  10:	1004                	.2byte	0x1004
  12:	7205                	.2byte	0x7205
  14:	3376                	.2byte	0x3376
  16:	6932                	.2byte	0x6932
  18:	7032                	.2byte	0x7032
  1a:	5f31                	.2byte	0x5f31
  1c:	326d                	.2byte	0x326d
  1e:	3070                	.2byte	0x3070
	...
